

Microchip MPLAB XC8 Assembler V2.32 build 20210201212658 
                                                                                               Mon May 17 21:36:16 2021

Microchip MPLAB XC8 C Compiler v2.32 (Free license) build 20210201212658 Og1 
     1                           	processor	16F873
     2                           	pagewidth 120
     3                           	opt	flic
     4                           	psect	idataBANK0,global,class=CODE,delta=2,noexec
     5                           	psect	strings,global,class=STRING,delta=2,noexec
     6                           	psect	cinit,global,class=CODE,merge=1,delta=2
     7                           	psect	bitbssBANK0,global,bit,class=BANK0,space=1,delta=1,noexec
     8                           	psect	bssBANK0,global,class=BANK0,space=1,delta=1,noexec
     9                           	psect	dataBANK0,global,class=BANK0,space=1,delta=1,noexec
    10                           	psect	inittext,global,class=CODE,delta=2
    11                           	psect	cstackCOMMON,global,class=COMMON,space=1,delta=1,noexec
    12                           	psect	cstackBANK0,global,class=BANK0,space=1,delta=1,noexec
    13                           	psect	maintext,global,class=CODE,split=1,delta=2
    14                           	psect	text1,local,class=CODE,merge=1,delta=2
    15                           	psect	text2,local,class=CODE,merge=1,delta=2
    16                           	psect	text3,local,class=CODE,merge=1,delta=2
    17                           	psect	text4,local,class=CODE,merge=1,delta=2
    18                           	psect	text5,local,class=CODE,merge=1,delta=2
    19                           	psect	text6,local,class=CODE,merge=1,delta=2
    20                           	psect	text7,local,class=CODE,merge=1,delta=2
    21                           	psect	text8,local,class=CODE,merge=1,delta=2
    22                           	psect	text9,local,class=CODE,merge=1,delta=2
    23                           	psect	text10,local,class=CODE,merge=1,delta=2
    24                           	psect	text11,local,class=CODE,merge=1,delta=2
    25                           	psect	config,global,abs,ovrld,class=CONFIG,space=4,delta=2,noexec
    26                           	dabs	1,0x7E,2
    27  0000                     
    28                           ; Version 2.20
    29                           ; Generated 12/02/2020 GMT
    30                           ; 
    31                           ; Copyright © 2020, Microchip Technology Inc. and its subsidiaries ("Microchip")
    32                           ; All rights reserved.
    33                           ; 
    34                           ; This software is developed by Microchip Technology Inc. and its subsidiaries ("Microch
      +                          ip").
    35                           ; 
    36                           ; Redistribution and use in source and binary forms, with or without modification, are
    37                           ; permitted provided that the following conditions are met:
    38                           ; 
    39                           ;     1. Redistributions of source code must retain the above copyright notice, this lis
      +                          t of
    40                           ;        conditions and the following disclaimer.
    41                           ; 
    42                           ;     2. Redistributions in binary form must reproduce the above copyright notice, this 
      +                          list
    43                           ;        of conditions and the following disclaimer in the documentation and/or other
    44                           ;        materials provided with the distribution.
    45                           ; 
    46                           ;     3. Microchip's name may not be used to endorse or promote products derived from th
      +                          is
    47                           ;        software without specific prior written permission.
    48                           ; 
    49                           ; THIS SOFTWARE IS PROVIDED BY MICROCHIP "AS IS" AND ANY EXPRESS OR IMPLIED WARRANTIES,
    50                           ; INCLUDING, BUT NOT LIMITED TO, THE IMPLIED WARRANTIES OF MERCHANTABILITY AND FITNESS F
      +                          OR
    51                           ; PURPOSE ARE DISCLAIMED.  IN NO EVENT SHALL MICROCHIP BE LIABLE FOR ANY DIRECT, INDIREC
      +                          T,
    52                           ; INCIDENTAL, SPECIAL, EXEMPLARY, OR CONSEQUENTIAL DAMAGES (INCLUDING BUT NOT LIMITED TO
    53                           ; PROCUREMENT OF SUBSTITUTE GOODS OR SERVICES; LOSS OF USE, DATA OR PROFITS; OR BUSINESS
    54                           ; INTERRUPTION) HOWSOEVER CAUSED AND ON ANY THEORY OF LIABILITY, WHETHER IN CONTRACT, ST
      +                          RICT
    55                           ; LIABILITY, OR TORT (INCLUDING NEGLIGENCE OR OTHERWISE) ARISING IN ANY WAY OUT OF THE U
      +                          SE OF
    56                           ; THIS SOFTWARE, EVEN IF ADVISED OF THE POSSIBILITY OF SUCH DAMAGE.
    57                           ; 
    58                           ; 
    59                           ; Code-generator required, PIC16F873 Definitions
    60                           ; 
    61                           ; SFR Addresses
    62  0000                     	;# 
    63  0001                     	;# 
    64  0002                     	;# 
    65  0003                     	;# 
    66  0004                     	;# 
    67  0005                     	;# 
    68  0006                     	;# 
    69  0007                     	;# 
    70  000A                     	;# 
    71  000B                     	;# 
    72  000C                     	;# 
    73  000D                     	;# 
    74  000E                     	;# 
    75  000E                     	;# 
    76  000F                     	;# 
    77  0010                     	;# 
    78  0011                     	;# 
    79  0012                     	;# 
    80  0013                     	;# 
    81  0014                     	;# 
    82  0015                     	;# 
    83  0015                     	;# 
    84  0016                     	;# 
    85  0017                     	;# 
    86  0018                     	;# 
    87  0019                     	;# 
    88  001A                     	;# 
    89  001B                     	;# 
    90  001B                     	;# 
    91  001C                     	;# 
    92  001D                     	;# 
    93  001E                     	;# 
    94  001F                     	;# 
    95  0081                     	;# 
    96  0085                     	;# 
    97  0086                     	;# 
    98  0087                     	;# 
    99  008C                     	;# 
   100  008D                     	;# 
   101  008E                     	;# 
   102  0091                     	;# 
   103  0092                     	;# 
   104  0093                     	;# 
   105  0094                     	;# 
   106  0098                     	;# 
   107  0099                     	;# 
   108  009E                     	;# 
   109  009F                     	;# 
   110  010C                     	;# 
   111  010D                     	;# 
   112  010E                     	;# 
   113  010F                     	;# 
   114  018C                     	;# 
   115  018D                     	;# 
   116  0000                     	;# 
   117  0001                     	;# 
   118  0002                     	;# 
   119  0003                     	;# 
   120  0004                     	;# 
   121  0005                     	;# 
   122  0006                     	;# 
   123  0007                     	;# 
   124  000A                     	;# 
   125  000B                     	;# 
   126  000C                     	;# 
   127  000D                     	;# 
   128  000E                     	;# 
   129  000E                     	;# 
   130  000F                     	;# 
   131  0010                     	;# 
   132  0011                     	;# 
   133  0012                     	;# 
   134  0013                     	;# 
   135  0014                     	;# 
   136  0015                     	;# 
   137  0015                     	;# 
   138  0016                     	;# 
   139  0017                     	;# 
   140  0018                     	;# 
   141  0019                     	;# 
   142  001A                     	;# 
   143  001B                     	;# 
   144  001B                     	;# 
   145  001C                     	;# 
   146  001D                     	;# 
   147  001E                     	;# 
   148  001F                     	;# 
   149  0081                     	;# 
   150  0085                     	;# 
   151  0086                     	;# 
   152  0087                     	;# 
   153  008C                     	;# 
   154  008D                     	;# 
   155  008E                     	;# 
   156  0091                     	;# 
   157  0092                     	;# 
   158  0093                     	;# 
   159  0094                     	;# 
   160  0098                     	;# 
   161  0099                     	;# 
   162  009E                     	;# 
   163  009F                     	;# 
   164  010C                     	;# 
   165  010D                     	;# 
   166  010E                     	;# 
   167  010F                     	;# 
   168  018C                     	;# 
   169  018D                     	;# 
   170                           
   171                           	psect	idataBANK0
   172  0436                     __pidataBANK0:
   173                           
   174                           ;initializer for _X
   175  0436  342F               	retlw	47
   176  0437  3400               	retlw	0
   177                           
   178                           ;initializer for _M
   179  0438  3445               	retlw	69
   180  0439  346C               	retlw	108
   181  043A  3420               	retlw	32
   182  043B  3441               	retlw	65
   183  043C  3444               	retlw	68
   184  043D  3443               	retlw	67
   185  043E  3420               	retlw	32
   186  043F  3479               	retlw	121
   187  0440  3420               	retlw	32
   188  0441  3465               	retlw	101
   189  0442  346C               	retlw	108
   190  0443  3420               	retlw	32
   191  0444  3455               	retlw	85
   192  0445  3441               	retlw	65
   193  0446  3452               	retlw	82
   194  0447  3454               	retlw	84
   195  0448  3420               	retlw	32
   196  0449  344A               	retlw	74
   197  044A  346F               	retlw	111
   198  044B  3473               	retlw	115
   199  044C  3465               	retlw	101
   200  044D  3420               	retlw	32
   201  044E  3452               	retlw	82
   202  044F  3464               	retlw	100
   203  0450  3467               	retlw	103
   204  0451  347A               	retlw	122
   205  0452  3420               	retlw	32
   206  0453  3479               	retlw	121
   207  0454  3420               	retlw	32
   208  0455  344B               	retlw	75
   209  0456  3461               	retlw	97
   210  0457  3472               	retlw	114
   211  0458  346C               	retlw	108
   212  0459  3461               	retlw	97
   213  045A  3420               	retlw	32
   214  045B  3452               	retlw	82
   215  045C  3465               	retlw	101
   216  045D  3479               	retlw	121
   217  045E  3465               	retlw	101
   218  045F  3473               	retlw	115
   219  0460  3400               	retlw	0
   220  0006                     _PORTB	set	6
   221  0005                     _PORTA	set	5
   222  0007                     _PORTC	set	7
   223  001E                     _ADRESH	set	30
   224  001A                     _RCREG	set	26
   225  0019                     _TXREG	set	25
   226  000C                     _PIR1bits	set	12
   227  0018                     _RCSTAbits	set	24
   228  0018                     _RCSTA	set	24
   229  0001                     _TMR0	set	1
   230  001F                     _ADCON0	set	31
   231  0006                     _PORTBbits	set	6
   232  0005                     _PORTAbits	set	5
   233  00FA                     _GO	set	250
   234  00F8                     _ADON	set	248
   235  00FB                     _CHS0	set	251
   236  00FC                     _CHS1	set	252
   237  00FD                     _CHS2	set	253
   238  0066                     _ADIF	set	102
   239  003C                     _RC4	set	60
   240  002D                     _RA5	set	45
   241  002C                     _RA4	set	44
   242  002B                     _RA3	set	43
   243  0038                     _RC0	set	56
   244  0039                     _RC1	set	57
   245  003A                     _RC2	set	58
   246  003B                     _RC3	set	59
   247  0087                     _TRISCbits	set	135
   248  009E                     _ADRESL	set	158
   249  0099                     _SPBRG	set	153
   250  0098                     _TXSTAbits	set	152
   251  0098                     _TXSTA	set	152
   252  0081                     _OPTION_REG	set	129
   253  009F                     _ADCON1	set	159
   254  0086                     _TRISBbits	set	134
   255  0085                     _TRISAbits	set	133
   256                           
   257                           	psect	strings
   258  0002                     __pstrings:
   259  0002                     stringtab:
   260  0002                     __stringtab:
   261                           
   262                           ;	String table - string pointers are 1 byte each
   263  0002  1BFF               	btfsc	btemp+1,7
   264  0003  280C               	ljmp	stringcode
   265  0004  1383               	bcf	3,7
   266  0005  187F               	btfsc	btemp+1,0
   267  0006  1783               	bsf	3,7
   268  0007  0800               	movf	0,w
   269  0008  0A84               	incf	4,f
   270  0009  1903               	skipnz
   271  000A  0AFF               	incf	btemp+1,f
   272  000B  0008               	return
   273  000C                     stringcode:
   274  000C                     stringdir:
   275  000C  3000               	movlw	high stringdir
   276  000D  008A               	movwf	10
   277  000E  0804               	movf	4,w
   278  000F  0A84               	incf	4,f
   279  0010  0782               	addwf	2,f
   280  0011                     __stringbase:
   281  0011  3400               	retlw	0
   282  0012                     __end_of__stringtab:
   283  0012                     STR_6:
   284  0012  3433               	retlw	51	;'3'
   285  0013  342E               	retlw	46	;'.'
   286  0014  3431               	retlw	49	;'1'
   287  0015  3432               	retlw	50	;'2'
   288  0016  3456               	retlw	86	;'V'
   289  0017  3400               	retlw	0
   290  0018                     STR_3:
   291  0018  3431               	retlw	49	;'1'
   292  0019  342E               	retlw	46	;'.'
   293  001A  3432               	retlw	50	;'2'
   294  001B  3435               	retlw	53	;'5'
   295  001C  3456               	retlw	86	;'V'
   296  001D  3400               	retlw	0
   297  001E                     STR_7:
   298  001E  3433               	retlw	51	;'3'
   299  001F  342E               	retlw	46	;'.'
   300  0020  3437               	retlw	55	;'7'
   301  0021  3435               	retlw	53	;'5'
   302  0022  3456               	retlw	86	;'V'
   303  0023  3400               	retlw	0
   304  0024                     STR_8:
   305  0024  3434               	retlw	52	;'4'
   306  0025  342E               	retlw	46	;'.'
   307  0026  3433               	retlw	51	;'3'
   308  0027  3437               	retlw	55	;'7'
   309  0028  3456               	retlw	86	;'V'
   310  0029  3400               	retlw	0
   311  002A                     STR_4:
   312  002A  3431               	retlw	49	;'1'
   313  002B  342E               	retlw	46	;'.'
   314  002C  3439               	retlw	57	;'9'
   315  002D  3437               	retlw	55	;'7'
   316  002E  3456               	retlw	86	;'V'
   317  002F  3400               	retlw	0
   318  0030                     STR_2:
   319  0030  3436               	retlw	54	;'6'
   320  0031  3432               	retlw	50	;'2'
   321  0032  3435               	retlw	53	;'5'
   322  0033  346D               	retlw	109	;'m'
   323  0034  3476               	retlw	118	;'v'
   324  0035  3400               	retlw	0
   325  0036                     STR_10:
   326  0036  3452               	retlw	82	;'R'
   327  0037  3465               	retlw	101	;'e'
   328  0038  3463               	retlw	99	;'c'
   329  0039  3420               	retlw	32	;' '
   330  003A  3400               	retlw	0
   331  003B                     STR_5:
   332  003B  3432               	retlw	50	;'2'
   333  003C  342E               	retlw	46	;'.'
   334  003D  3435               	retlw	53	;'5'
   335  003E  3456               	retlw	86	;'V'
   336  003F  3400               	retlw	0
   337  0040                     STR_11:
   338  0040  3445               	retlw	69	;'E'
   339  0041  346E               	retlw	110	;'n'
   340  0042  3476               	retlw	118	;'v'
   341  0043  3400               	retlw	0
   342  0044                     STR_1:
   343  0044  3430               	retlw	48	;'0'
   344  0045  3456               	retlw	86	;'V'
   345  0046  3400               	retlw	0
   346  003D                     
   347                           	psect	cinit
   348  07E8                     start_initialization:	
   349                           ; #config settings
   350                           
   351  07E8                     __initialization:
   352                           
   353                           ; Initialize objects allocated to BANK0
   354  07E8  1383               	bcf	3,7	;select IRP bank0
   355  07E9  304B               	movlw	low (__pdataBANK0+43)
   356  07EA  00FD               	movwf	btemp+-1
   357  07EB  3004               	movlw	high __pidataBANK0
   358  07EC  00FE               	movwf	btemp
   359  07ED  3036               	movlw	low __pidataBANK0
   360  07EE  00FF               	movwf	btemp+1
   361  07EF  3020               	movlw	low __pdataBANK0
   362  07F0  0084               	movwf	4
   363  07F1  118A  23B6  118A   	fcall	init_ram0
   364                           
   365                           ; Clear objects allocated to BANK0
   366  07F4  01E0               	clrf	__pbssBANK0& (0+127)
   367  07F5  01E1               	clrf	(__pbssBANK0+1)& (0+127)
   368  07F6  01E2               	clrf	(__pbssBANK0+2)& (0+127)
   369  07F7  01E3               	clrf	(__pbssBANK0+3)& (0+127)
   370  07F8  01E4               	clrf	(__pbssBANK0+4)& (0+127)
   371  07F9  01E5               	clrf	(__pbssBANK0+5)& (0+127)
   372  07FA  01E6               	clrf	(__pbssBANK0+6)& (0+127)
   373  07FB  01E7               	clrf	(__pbssBANK0+7)& (0+127)
   374                           
   375                           ; Clear objects allocated to BITBANK0
   376  07FC  01E8               	clrf	(__pbitbssBANK0/(0+8))& (0+127)
   377  07FD                     end_of_initialization:	
   378                           ;End of C runtime variable initialization code
   379                           
   380  07FD                     __end_of__initialization:
   381  07FD  0183               	clrf	3
   382  07FE  118A  2DC6         	ljmp	_main	;jump to C main() function
   383                           
   384                           	psect	bitbssBANK0
   385  0340                     __pbitbssBANK0:
   386  0340                     _RS:
   387  0340                     	ds	1
   388                           
   389                           	psect	bssBANK0
   390  0060                     __pbssBANK0:
   391  0060                     _number:
   392  0060                     	ds	4
   393  0064                     _ADRES:
   394  0064                     	ds	2
   395  0066                     _ECO:
   396  0066                     	ds	2
   397                           
   398                           	psect	dataBANK0
   399  0020                     __pdataBANK0:
   400  0020                     _X:
   401  0020                     	ds	2
   402  0022                     _M:
   403  0022                     	ds	41
   404                           
   405                           	psect	inittext
   406  03B2                     init_fetch0:	
   407                           ;	Called with low address in FSR and high address in W
   408                           
   409  03B2  087E               	movf	btemp,w
   410  03B3  008A               	movwf	10
   411  03B4  087F               	movf	btemp+1,w
   412  03B5  0082               	movwf	2
   413  03B6                     init_ram0:	
   414                           ;Called with:
   415                           ;	high address of idata address in btemp 
   416                           ;	low address of idata address in btemp+1 
   417                           ;	low address of data in FSR
   418                           ;	high address + 1 of data in btemp-1
   419                           
   420  03B6  118A  23B2  118A   	fcall	init_fetch0
   421  03B9  0080               	movwf	0
   422  03BA  0A84               	incf	4,f
   423  03BB  0804               	movf	4,w
   424  03BC  067D               	xorwf	btemp+-1,w
   425  03BD  1903               	btfsc	3,2
   426  03BE  3400               	retlw	0
   427  03BF  0AFF               	incf	btemp+1,f
   428  03C0  1903               	btfsc	3,2
   429  03C1  0AFE               	incf	btemp,f
   430  03C2  2BB6               	goto	init_ram0
   431                           
   432                           	psect	cstackCOMMON
   433  0000                     __pcstackCOMMON:
   434  0000                     ??_iniciar_puertos:
   435  0000                     ??_set_configuraciones:	
   436                           ; 1 bytes @ 0x0
   437                           
   438                           
   439                           	psect	cstackBANK0
   440  004B                     __pcstackBANK0:	
   441                           ; 1 bytes @ 0x0
   442                           
   443  004B                     ?_iniciar_puertos:
   444  004B                     ?_inicio_presentacion:	
   445                           ; 1 bytes @ 0x0
   446                           
   447  004B                     ?_LCD_Write_Nibble:	
   448                           ; 1 bytes @ 0x0
   449                           
   450  004B                     ??_LCD_Write_Nibble:	
   451                           ; 1 bytes @ 0x0
   452                           
   453  004B                     ?_LCD_Cmd:	
   454                           ; 1 bytes @ 0x0
   455                           
   456  004B                     ?_LCD_PutC:	
   457                           ; 1 bytes @ 0x0
   458                           
   459  004B                     ?_LCD_Begin:	
   460                           ; 1 bytes @ 0x0
   461                           
   462  004B                     ?_keypad_readkey:	
   463                           ; 1 bytes @ 0x0
   464                           
   465  004B                     ??_keypad_readkey:	
   466                           ; 1 bytes @ 0x0
   467                           
   468  004B                     ?_keypad_getkey:	
   469                           ; 1 bytes @ 0x0
   470                           
   471  004B                     ?_set_configuraciones:	
   472                           ; 1 bytes @ 0x0
   473                           
   474  004B                     ?_main:	
   475                           ; 1 bytes @ 0x0
   476                           
   477                           
   478                           ; 2 bytes @ 0x0
   479  004B                     	ds	1
   480  004C                     ??_keypad_getkey:
   481                           
   482                           ; 1 bytes @ 0x1
   483  004C                     	ds	1
   484  004D                     LCD_Write_Nibble@n:
   485  004D                     keypad_getkey@key:	
   486                           ; 1 bytes @ 0x2
   487                           
   488                           
   489                           ; 1 bytes @ 0x2
   490  004D                     	ds	1
   491  004E                     ??_LCD_Cmd:
   492  004E                     ??_LCD_PutC:	
   493                           ; 1 bytes @ 0x3
   494                           
   495  004E                     ?_LCD_Print:	
   496                           ; 1 bytes @ 0x3
   497                           
   498  004E                     LCD_Print@LCD_Str:	
   499                           ; 1 bytes @ 0x3
   500                           
   501                           
   502                           ; 2 bytes @ 0x3
   503  004E                     	ds	1
   504  004F                     LCD_PutC@LCD_Char:
   505                           
   506                           ; 1 bytes @ 0x4
   507  004F                     	ds	1
   508  0050                     ??_LCD_Print:
   509  0050                     LCD_Cmd@Command:	
   510                           ; 1 bytes @ 0x5
   511                           
   512                           
   513                           ; 1 bytes @ 0x5
   514  0050                     	ds	1
   515  0051                     ?_LCD_Goto:
   516  0051                     ??_LCD_Begin:	
   517                           ; 1 bytes @ 0x6
   518                           
   519  0051                     LCD_Goto@row:	
   520                           ; 1 bytes @ 0x6
   521                           
   522  0051                     LCD_Print@i:	
   523                           ; 1 bytes @ 0x6
   524                           
   525                           
   526                           ; 1 bytes @ 0x6
   527  0051                     	ds	1
   528  0052                     ??_LCD_Goto:
   529                           
   530                           ; 1 bytes @ 0x7
   531  0052                     	ds	2
   532  0054                     LCD_Goto@col:
   533                           
   534                           ; 1 bytes @ 0x9
   535  0054                     	ds	1
   536  0055                     ??_inicio_presentacion:
   537                           
   538                           ; 1 bytes @ 0xA
   539  0055                     	ds	3
   540  0058                     inicio_presentacion@i:
   541                           
   542                           ; 2 bytes @ 0xD
   543  0058                     	ds	2
   544  005A                     ??_main:
   545                           
   546                           ; 1 bytes @ 0xF
   547  005A                     	ds	3
   548  005D                     main@i:
   549                           
   550                           ; 2 bytes @ 0x12
   551  005D                     	ds	2
   552  005F                     main@c:
   553                           
   554                           ; 1 bytes @ 0x14
   555  005F                     	ds	1
   556                           
   557                           	psect	maintext
   558  05C6                     __pmaintext:	
   559 ;;
   560 ;;Main: autosize = 0, tempsize = 3, incstack = 0, save=0
   561 ;;
   562 ;; *************** function _main *****************
   563 ;; Defined at:
   564 ;;		line 145 in file "main.c"
   565 ;; Parameters:    Size  Location     Type
   566 ;;		None
   567 ;; Auto vars:     Size  Location     Type
   568 ;;  c               1   20[BANK0 ] unsigned char 
   569 ;;  i               2   18[BANK0 ] int 
   570 ;; Return value:  Size  Location     Type
   571 ;;                  2  204[None  ] int 
   572 ;; Registers used:
   573 ;;		wreg, fsr0l, fsr0h, status,2, status,0, btemp+1, pclath, cstack
   574 ;; Tracked objects:
   575 ;;		On entry : B00/0
   576 ;;		On exit  : 0/0
   577 ;;		Unchanged: 0/0
   578 ;; Data sizes:     COMMON   BANK0   BANK1
   579 ;;      Params:         0       0       0
   580 ;;      Locals:         0       3       0
   581 ;;      Temps:          0       3       0
   582 ;;      Totals:         0       6       0
   583 ;;Total ram usage:        6 bytes
   584 ;; Hardware stack levels required when called: 4
   585 ;; This function calls:
   586 ;;		_LCD_Begin
   587 ;;		_LCD_Cmd
   588 ;;		_LCD_Goto
   589 ;;		_LCD_Print
   590 ;;		_LCD_PutC
   591 ;;		_iniciar_puertos
   592 ;;		_inicio_presentacion
   593 ;;		_keypad_getkey
   594 ;;		_set_configuraciones
   595 ;; This function is called by:
   596 ;;		Startup code after reset
   597 ;; This function uses a non-reentrant model
   598 ;;
   599                           
   600                           
   601                           ;psect for function _main
   602  05C6                     _main:
   603  05C6                     l1615:	
   604                           ;incstack = 0
   605                           ; Regs used in _main: [wreg-fsr0h+status,2+status,0+btemp+1+pclath+cstack]
   606                           
   607                           
   608                           ;main.c: 147:     int i=0;
   609  05C6  1283               	bcf	3,5	;RP0=0, select bank0
   610  05C7  1303               	bcf	3,6	;RP1=0, select bank0
   611  05C8  01DD               	clrf	main@i
   612  05C9  01DE               	clrf	main@i+1
   613  05CA                     l1617:
   614                           
   615                           ;main.c: 148:     set_configuraciones();
   616  05CA  118A  2410  118A   	fcall	_set_configuraciones
   617  05CD                     l1619:
   618                           
   619                           ;main.c: 150:     iniciar_puertos();
   620  05CD  118A  23C3  118A   	fcall	_iniciar_puertos
   621  05D0                     l1621:
   622                           
   623                           ;main.c: 153:     LCD_Begin();
   624  05D0  118A  2653  118A   	fcall	_LCD_Begin
   625  05D3                     l1623:
   626                           
   627                           ;main.c: 154:     inicio_presentacion();
   628  05D3  118A  255F  118A   	fcall	_inicio_presentacion
   629  05D6                     l1625:
   630                           
   631                           ;main.c: 155:     _delay((unsigned long)((500)*(32000000/4000.0)));
   632  05D6  3015               	movlw	21
   633  05D7  1283               	bcf	3,5	;RP0=0, select bank0
   634  05D8  1303               	bcf	3,6	;RP1=0, select bank0
   635  05D9  00DC               	movwf	??_main+2
   636  05DA  304B               	movlw	75
   637  05DB  00DB               	movwf	??_main+1
   638  05DC  30BE               	movlw	190
   639  05DD  00DA               	movwf	??_main
   640  05DE                     u1207:
   641  05DE  0BDA               	decfsz	??_main,f
   642  05DF  2DDE               	goto	u1207
   643  05E0  0BDB               	decfsz	??_main+1,f
   644  05E1  2DDE               	goto	u1207
   645  05E2  0BDC               	decfsz	??_main+2,f
   646  05E3  2DDE               	goto	u1207
   647  05E4                     l1627:
   648                           
   649                           ;main.c: 156:     LCD_Goto(1, 1);
   650  05E4  1283               	bcf	3,5	;RP0=0, select bank0
   651  05E5  1303               	bcf	3,6	;RP1=0, select bank0
   652  05E6  01D1               	clrf	LCD_Goto@row
   653  05E7  0AD1               	incf	LCD_Goto@row,f
   654  05E8  3001               	movlw	1
   655  05E9  118A  248F  118A   	fcall	_LCD_Goto
   656  05EC                     l1629:
   657                           
   658                           ;main.c: 157:     _delay((unsigned long)((500)*(32000000/4000.0)));
   659  05EC  3015               	movlw	21
   660  05ED  1283               	bcf	3,5	;RP0=0, select bank0
   661  05EE  1303               	bcf	3,6	;RP1=0, select bank0
   662  05EF  00DC               	movwf	??_main+2
   663  05F0  304B               	movlw	75
   664  05F1  00DB               	movwf	??_main+1
   665  05F2  30BE               	movlw	190
   666  05F3  00DA               	movwf	??_main
   667  05F4                     u1217:
   668  05F4  0BDA               	decfsz	??_main,f
   669  05F5  2DF4               	goto	u1217
   670  05F6  0BDB               	decfsz	??_main+1,f
   671  05F7  2DF4               	goto	u1217
   672  05F8  0BDC               	decfsz	??_main+2,f
   673  05F9  2DF4               	goto	u1217
   674  05FA                     l1631:
   675                           
   676                           ;main.c: 163:     if(i<4)
   677  05FA  1283               	bcf	3,5	;RP0=0, select bank0
   678  05FB  1303               	bcf	3,6	;RP1=0, select bank0
   679  05FC  085E               	movf	main@i+1,w
   680  05FD  3A80               	xorlw	128
   681  05FE  00FF               	movwf	btemp+1
   682  05FF  3080               	movlw	128
   683  0600  027F               	subwf	btemp+1,w
   684  0601  1D03               	skipz
   685  0602  2E05               	goto	u1165
   686  0603  3004               	movlw	4
   687  0604  025D               	subwf	main@i,w
   688  0605                     u1165:
   689  0605  1803               	skipnc
   690  0606  2E08               	goto	u1161
   691  0607  2E09               	goto	u1160
   692  0608                     u1161:
   693  0608  2E3F               	goto	l1651
   694  0609                     u1160:
   695  0609                     l1633:
   696                           
   697                           ;main.c: 164:     {;main.c: 165:     char c = keypad_getkey();
   698  0609  118A  23EF  118A   	fcall	_keypad_getkey
   699  060C  1283               	bcf	3,5	;RP0=0, select bank0
   700  060D  1303               	bcf	3,6	;RP1=0, select bank0
   701  060E  00DA               	movwf	??_main
   702  060F  085A               	movf	??_main,w
   703  0610  00DF               	movwf	main@c
   704  0611                     l1635:
   705                           
   706                           ;main.c: 166:         if(c!='=' && c!='A')
   707  0611  303D               	movlw	61
   708  0612  065F               	xorwf	main@c,w
   709  0613  1903               	btfsc	3,2
   710  0614  2E16               	goto	u1171
   711  0615  2E17               	goto	u1170
   712  0616                     u1171:
   713  0616  2E32               	goto	l1645
   714  0617                     u1170:
   715  0617                     l1637:
   716  0617  3041               	movlw	65
   717  0618  065F               	xorwf	main@c,w
   718  0619  1903               	btfsc	3,2
   719  061A  2E1C               	goto	u1181
   720  061B  2E1D               	goto	u1180
   721  061C                     u1181:
   722  061C  2E32               	goto	l1645
   723  061D                     u1180:
   724  061D                     l1639:
   725                           
   726                           ;main.c: 167:         {;main.c: 168:         LCD_PutC(c);
   727  061D  085F               	movf	main@c,w
   728  061E  118A  23D8  118A   	fcall	_LCD_PutC
   729  0621                     l1641:
   730                           
   731                           ;main.c: 169:         number[i]=c;
   732  0621  1283               	bcf	3,5	;RP0=0, select bank0
   733  0622  1303               	bcf	3,6	;RP1=0, select bank0
   734  0623  085F               	movf	main@c,w
   735  0624  00DA               	movwf	??_main
   736  0625  085D               	movf	main@i,w
   737  0626  3E60               	addlw	(low (_number| 0))& (0+255)
   738  0627  0084               	movwf	4
   739  0628  085A               	movf	??_main,w
   740  0629  1383               	bcf	3,7	;select IRP bank0
   741  062A  0080               	movwf	0
   742  062B                     l1643:
   743                           
   744                           ;main.c: 170:         i++;
   745  062B  3001               	movlw	1
   746  062C  07DD               	addwf	main@i,f
   747  062D  1803               	skipnc
   748  062E  0ADE               	incf	main@i+1,f
   749  062F  3000               	movlw	0
   750  0630  07DE               	addwf	main@i+1,f
   751                           
   752                           ;main.c: 171:         }
   753  0631  2DEC               	goto	l1629
   754  0632                     l1645:
   755  0632  3041               	movlw	65
   756  0633  065F               	xorwf	main@c,w
   757  0634  1D03               	btfss	3,2
   758  0635  2E37               	goto	u1191
   759  0636  2E38               	goto	u1190
   760  0637                     u1191:
   761  0637  2DEC               	goto	l1629
   762  0638                     u1190:
   763  0638                     l1647:
   764                           
   765                           ;main.c: 173:         {;main.c: 174:             i=0;
   766  0638  01DD               	clrf	main@i
   767  0639  01DE               	clrf	main@i+1
   768  063A                     l1649:
   769                           
   770                           ;main.c: 175:             LCD_Cmd(0x01);
   771  063A  3001               	movlw	1
   772  063B  118A  2461  118A   	fcall	_LCD_Cmd
   773  063E  2DEC               	goto	l1629
   774  063F                     l1651:
   775                           
   776                           ;main.c: 184:     {;main.c: 185:          i=0;
   777  063F  1283               	bcf	3,5	;RP0=0, select bank0
   778  0640  1303               	bcf	3,6	;RP1=0, select bank0
   779  0641  01DD               	clrf	main@i
   780  0642  01DE               	clrf	main@i+1
   781  0643                     l1653:
   782                           
   783                           ;main.c: 186:          LCD_PutC(' ');
   784  0643  3020               	movlw	32
   785  0644  118A  23D8  118A   	fcall	_LCD_PutC
   786  0647                     l1655:
   787                           
   788                           ;main.c: 187:          LCD_Print("Env");
   789  0647  302F               	movlw	(low ((STR_11-__stringbase)| (0+32768)))& (0+255)
   790  0648  1283               	bcf	3,5	;RP0=0, select bank0
   791  0649  1303               	bcf	3,6	;RP1=0, select bank0
   792  064A  00CE               	movwf	LCD_Print@LCD_Str
   793  064B  3080               	movlw	128
   794  064C  00CF               	movwf	LCD_Print@LCD_Str+1
   795  064D  118A  24BF  118A   	fcall	_LCD_Print
   796  0650  2DEC               	goto	l1629
   797  0651  118A  2800         	ljmp	start
   798  0653                     __end_of_main:
   799                           
   800                           	psect	text1
   801  0410                     __ptext1:	
   802 ;; *************** function _set_configuraciones *****************
   803 ;; Defined at:
   804 ;;		line 31 in file "main.c"
   805 ;; Parameters:    Size  Location     Type
   806 ;;		None
   807 ;; Auto vars:     Size  Location     Type
   808 ;;		None
   809 ;; Return value:  Size  Location     Type
   810 ;;                  1    wreg      void 
   811 ;; Registers used:
   812 ;;		wreg, status,2
   813 ;; Tracked objects:
   814 ;;		On entry : 0/0
   815 ;;		On exit  : 0/0
   816 ;;		Unchanged: 0/0
   817 ;; Data sizes:     COMMON   BANK0   BANK1
   818 ;;      Params:         0       0       0
   819 ;;      Locals:         0       0       0
   820 ;;      Temps:          0       0       0
   821 ;;      Totals:         0       0       0
   822 ;;Total ram usage:        0 bytes
   823 ;; Hardware stack levels used: 1
   824 ;; This function calls:
   825 ;;		Nothing
   826 ;; This function is called by:
   827 ;;		_main
   828 ;; This function uses a non-reentrant model
   829 ;;
   830                           
   831                           
   832                           ;psect for function _set_configuraciones
   833  0410                     _set_configuraciones:
   834  0410                     l1495:	
   835                           ;incstack = 0
   836                           ; Regs used in _set_configuraciones: [wreg+status,2]
   837                           
   838                           
   839                           ;main.c: 35:     ADCON0 = 0x80;
   840  0410  3080               	movlw	128
   841  0411  1283               	bcf	3,5	;RP0=0, select bank0
   842  0412  1303               	bcf	3,6	;RP1=0, select bank0
   843  0413  009F               	movwf	31	;volatile
   844                           
   845                           ;main.c: 36:     ADCON1 = 0x8E;
   846  0414  308E               	movlw	142
   847  0415  1683               	bsf	3,5	;RP0=1, select bank1
   848  0416  1303               	bcf	3,6	;RP1=0, select bank1
   849  0417  009F               	movwf	31	;volatile
   850  0418                     l1497:
   851                           
   852                           ;main.c: 40:     ADIF = 0;
   853  0418  1283               	bcf	3,5	;RP0=0, select bank0
   854  0419  1303               	bcf	3,6	;RP1=0, select bank0
   855  041A  130C               	bcf	12,6	;volatile
   856                           
   857                           ;main.c: 43:     OPTION_REG = 0x51;
   858  041B  3051               	movlw	81
   859  041C  1683               	bsf	3,5	;RP0=1, select bank1
   860  041D  1303               	bcf	3,6	;RP1=0, select bank1
   861  041E  0081               	movwf	1	;volatile
   862  041F                     l1499:
   863                           
   864                           ;main.c: 44:     TMR0 = 0;
   865  041F  1283               	bcf	3,5	;RP0=0, select bank0
   866  0420  1303               	bcf	3,6	;RP1=0, select bank0
   867  0421  0181               	clrf	1	;volatile
   868  0422                     l1501:
   869                           
   870                           ;main.c: 47:     TXSTA = 0x00;
   871  0422  1683               	bsf	3,5	;RP0=1, select bank1
   872  0423  1303               	bcf	3,6	;RP1=0, select bank1
   873  0424  0198               	clrf	24	;volatile
   874  0425                     l1503:
   875                           
   876                           ;main.c: 48:     RCSTA = 0x00;
   877  0425  1283               	bcf	3,5	;RP0=0, select bank0
   878  0426  1303               	bcf	3,6	;RP1=0, select bank0
   879  0427  0198               	clrf	24	;volatile
   880  0428                     l1505:
   881                           
   882                           ;main.c: 49:     RCSTAbits.SPEN = 1;
   883  0428  1798               	bsf	24,7	;volatile
   884  0429                     l1507:
   885                           
   886                           ;main.c: 50:     TXSTAbits.SYNC = 0;
   887  0429  1683               	bsf	3,5	;RP0=1, select bank1
   888  042A  1303               	bcf	3,6	;RP1=0, select bank1
   889  042B  1218               	bcf	24,4	;volatile
   890  042C                     l1509:
   891                           
   892                           ;main.c: 51:     TXSTAbits.BRGH = 1;
   893  042C  1518               	bsf	24,2	;volatile
   894  042D                     l1511:
   895                           
   896                           ;main.c: 52:     TXSTAbits.TXEN = 1;
   897  042D  1698               	bsf	24,5	;volatile
   898  042E                     l1513:
   899                           
   900                           ;main.c: 53:     RCSTAbits.CREN = 1;
   901  042E  1283               	bcf	3,5	;RP0=0, select bank0
   902  042F  1303               	bcf	3,6	;RP1=0, select bank0
   903  0430  1618               	bsf	24,4	;volatile
   904  0431                     l1515:
   905                           
   906                           ;main.c: 55:     SPBRG = 25;
   907  0431  3019               	movlw	25
   908  0432  1683               	bsf	3,5	;RP0=1, select bank1
   909  0433  1303               	bcf	3,6	;RP1=0, select bank1
   910  0434  0099               	movwf	25	;volatile
   911  0435                     l170:
   912  0435  0008               	return
   913  0436                     __end_of_set_configuraciones:
   914                           
   915                           	psect	text2
   916  03EF                     __ptext2:	
   917 ;; *************** function _keypad_getkey *****************
   918 ;; Defined at:
   919 ;;		line 90 in file "./kbd.h"
   920 ;; Parameters:    Size  Location     Type
   921 ;;		None
   922 ;; Auto vars:     Size  Location     Type
   923 ;;  key             1    2[BANK0 ] unsigned char 
   924 ;; Return value:  Size  Location     Type
   925 ;;                  1    wreg      unsigned char 
   926 ;; Registers used:
   927 ;;		wreg, status,2, status,0, pclath, cstack
   928 ;; Tracked objects:
   929 ;;		On entry : 0/0
   930 ;;		On exit  : 0/0
   931 ;;		Unchanged: 0/0
   932 ;; Data sizes:     COMMON   BANK0   BANK1
   933 ;;      Params:         0       0       0
   934 ;;      Locals:         0       1       0
   935 ;;      Temps:          0       1       0
   936 ;;      Totals:         0       2       0
   937 ;;Total ram usage:        2 bytes
   938 ;; Hardware stack levels used: 1
   939 ;; Hardware stack levels required when called: 1
   940 ;; This function calls:
   941 ;;		_keypad_readkey
   942 ;; This function is called by:
   943 ;;		_main
   944 ;; This function uses a non-reentrant model
   945 ;;
   946                           
   947                           
   948                           ;psect for function _keypad_getkey
   949  03EF                     _keypad_getkey:
   950  03EF                     l1483:	
   951                           ;incstack = 0
   952                           ; Regs used in _keypad_getkey: [wreg+status,2+status,0+pclath+cstack]
   953                           
   954                           
   955                           ;./kbd.h: 92:  unsigned char key = 'x';
   956  03EF  3078               	movlw	120
   957  03F0  1283               	bcf	3,5	;RP0=0, select bank0
   958  03F1  1303               	bcf	3,6	;RP1=0, select bank0
   959  03F2  00CC               	movwf	??_keypad_getkey
   960  03F3  084C               	movf	??_keypad_getkey,w
   961  03F4  00CD               	movwf	keypad_getkey@key
   962                           
   963                           ;./kbd.h: 95:  while(key == 'x')
   964  03F5  2BFE               	goto	l1487
   965  03F6                     l1485:
   966                           
   967                           ;./kbd.h: 96:   key = keypad_readkey();
   968  03F6  118A  2710  118A   	fcall	_keypad_readkey
   969  03F9  1283               	bcf	3,5	;RP0=0, select bank0
   970  03FA  1303               	bcf	3,6	;RP1=0, select bank0
   971  03FB  00CC               	movwf	??_keypad_getkey
   972  03FC  084C               	movf	??_keypad_getkey,w
   973  03FD  00CD               	movwf	keypad_getkey@key
   974  03FE                     l1487:
   975                           
   976                           ;./kbd.h: 95:  while(key == 'x')
   977  03FE  3078               	movlw	120
   978  03FF  064D               	xorwf	keypad_getkey@key,w
   979  0400  1903               	btfsc	3,2
   980  0401  2C03               	goto	u1041
   981  0402  2C04               	goto	u1040
   982  0403                     u1041:
   983  0403  2BF6               	goto	l1485
   984  0404                     u1040:
   985  0404                     l1489:
   986  0404  118A  2710  118A   	fcall	_keypad_readkey
   987  0407  3A78               	xorlw	120
   988  0408  1D03               	skipz
   989  0409  2C0B               	goto	u1051
   990  040A  2C0C               	goto	u1050
   991  040B                     u1051:
   992  040B  2C04               	goto	l1489
   993  040C                     u1050:
   994  040C                     l1491:
   995                           
   996                           ;./kbd.h: 101:  return key;
   997  040C  1283               	bcf	3,5	;RP0=0, select bank0
   998  040D  1303               	bcf	3,6	;RP1=0, select bank0
   999  040E  084D               	movf	keypad_getkey@key,w
  1000  040F                     l157:
  1001  040F  0008               	return
  1002  0410                     __end_of_keypad_getkey:
  1003                           
  1004                           	psect	text3
  1005  0710                     __ptext3:	
  1006 ;; *************** function _keypad_readkey *****************
  1007 ;; Defined at:
  1008 ;;		line 35 in file "./kbd.h"
  1009 ;; Parameters:    Size  Location     Type
  1010 ;;		None
  1011 ;; Auto vars:     Size  Location     Type
  1012 ;;		None
  1013 ;; Return value:  Size  Location     Type
  1014 ;;                  1    wreg      unsigned char 
  1015 ;; Registers used:
  1016 ;;		wreg
  1017 ;; Tracked objects:
  1018 ;;		On entry : 0/0
  1019 ;;		On exit  : 0/0
  1020 ;;		Unchanged: 0/0
  1021 ;; Data sizes:     COMMON   BANK0   BANK1
  1022 ;;      Params:         0       0       0
  1023 ;;      Locals:         0       0       0
  1024 ;;      Temps:          0       1       0
  1025 ;;      Totals:         0       1       0
  1026 ;;Total ram usage:        1 bytes
  1027 ;; Hardware stack levels used: 1
  1028 ;; This function calls:
  1029 ;;		Nothing
  1030 ;; This function is called by:
  1031 ;;		_keypad_getkey
  1032 ;; This function uses a non-reentrant model
  1033 ;;
  1034                           
  1035                           
  1036                           ;psect for function _keypad_readkey
  1037  0710                     _keypad_readkey:
  1038  0710                     l1333:	
  1039                           ;incstack = 0
  1040                           ; Regs used in _keypad_readkey: [wreg]
  1041                           
  1042                           
  1043                           ;./kbd.h: 37:     RC3 = 1;
  1044  0710  1283               	bcf	3,5	;RP0=0, select bank0
  1045  0711  1303               	bcf	3,6	;RP1=0, select bank0
  1046  0712  1587               	bsf	7,3	;volatile
  1047                           
  1048                           ;./kbd.h: 38:     RC2 = 0;
  1049  0713  1107               	bcf	7,2	;volatile
  1050                           
  1051                           ;./kbd.h: 39:     RC1 = 0;
  1052  0714  1087               	bcf	7,1	;volatile
  1053                           
  1054                           ;./kbd.h: 40:     RC0 = 0;
  1055  0715  1007               	bcf	7,0	;volatile
  1056  0716                     l1335:
  1057                           
  1058                           ;./kbd.h: 41:     _delay((unsigned long)((30)*(32000000/4000000.0)));
  1059  0716  304F               	movlw	79
  1060  0717  1283               	bcf	3,5	;RP0=0, select bank0
  1061  0718  1303               	bcf	3,6	;RP1=0, select bank0
  1062  0719  00CB               	movwf	??_keypad_readkey
  1063  071A                     u1227:
  1064  071A  0BCB               	decfsz	??_keypad_readkey,f
  1065  071B  2F1A               	goto	u1227
  1066  071C  0000               	nop
  1067  071D                     l1337:
  1068                           
  1069                           ;./kbd.h: 43:     if(RC3==1 && RC2==0 && RC1==0 && RC0==0) {
  1070  071D  1283               	bcf	3,5	;RP0=0, select bank0
  1071  071E  1303               	bcf	3,6	;RP1=0, select bank0
  1072  071F  1D87               	btfss	7,3	;volatile
  1073  0720  2F22               	goto	u711
  1074  0721  2F23               	goto	u710
  1075  0722                     u711:
  1076  0722  2F47               	goto	l128
  1077  0723                     u710:
  1078  0723                     l1339:
  1079  0723  1907               	btfsc	7,2	;volatile
  1080  0724  2F26               	goto	u721
  1081  0725  2F27               	goto	u720
  1082  0726                     u721:
  1083  0726  2F47               	goto	l128
  1084  0727                     u720:
  1085  0727                     l1341:
  1086  0727  1887               	btfsc	7,1	;volatile
  1087  0728  2F2A               	goto	u731
  1088  0729  2F2B               	goto	u730
  1089  072A                     u731:
  1090  072A  2F47               	goto	l128
  1091  072B                     u730:
  1092  072B                     l1343:
  1093  072B  1807               	btfsc	7,0	;volatile
  1094  072C  2F2E               	goto	u741
  1095  072D  2F2F               	goto	u740
  1096  072E                     u741:
  1097  072E  2F47               	goto	l128
  1098  072F                     u740:
  1099  072F                     l1345:
  1100                           
  1101                           ;./kbd.h: 44:         if (RA3 == 1) return 'A';
  1102  072F  1D85               	btfss	5,3	;volatile
  1103  0730  2F32               	goto	u751
  1104  0731  2F33               	goto	u750
  1105  0732                     u751:
  1106  0732  2F35               	goto	l129
  1107  0733                     u750:
  1108  0733                     l1347:
  1109  0733  3041               	movlw	65
  1110  0734  2FE7               	goto	l130
  1111  0735                     l129:
  1112                           
  1113                           ;./kbd.h: 45:         if (RA4 == 1) return '0';
  1114  0735  1E05               	btfss	5,4	;volatile
  1115  0736  2F38               	goto	u761
  1116  0737  2F39               	goto	u760
  1117  0738                     u761:
  1118  0738  2F3B               	goto	l131
  1119  0739                     u760:
  1120  0739                     l1351:
  1121  0739  3030               	movlw	48
  1122  073A  2FE7               	goto	l130
  1123  073B                     l131:
  1124                           
  1125                           ;./kbd.h: 46:         if (RA5 == 1) return '=';
  1126  073B  1E85               	btfss	5,5	;volatile
  1127  073C  2F3E               	goto	u771
  1128  073D  2F3F               	goto	u770
  1129  073E                     u771:
  1130  073E  2F41               	goto	l132
  1131  073F                     u770:
  1132  073F                     l1355:
  1133  073F  303D               	movlw	61
  1134  0740  2FE7               	goto	l130
  1135  0741                     l132:
  1136                           
  1137                           ;./kbd.h: 47:         if (RC4 == 1) return '+';
  1138  0741  1E07               	btfss	7,4	;volatile
  1139  0742  2F44               	goto	u781
  1140  0743  2F45               	goto	u780
  1141  0744                     u781:
  1142  0744  2F47               	goto	l128
  1143  0745                     u780:
  1144  0745                     l1359:
  1145  0745  302B               	movlw	43
  1146  0746  2FE7               	goto	l130
  1147  0747                     l128:	
  1148                           ;./kbd.h: 48:     }
  1149                           
  1150                           
  1151                           ;./kbd.h: 49:     RC3 = 0;
  1152  0747  1187               	bcf	7,3	;volatile
  1153                           
  1154                           ;./kbd.h: 50:     RC2 = 1;
  1155  0748  1507               	bsf	7,2	;volatile
  1156                           
  1157                           ;./kbd.h: 51:     RC1 = 0;
  1158  0749  1087               	bcf	7,1	;volatile
  1159                           
  1160                           ;./kbd.h: 52:     RC0 = 0;
  1161  074A  1007               	bcf	7,0	;volatile
  1162  074B                     l1363:
  1163                           
  1164                           ;./kbd.h: 53:     _delay((unsigned long)((30)*(32000000/4000000.0)));
  1165  074B  304F               	movlw	79
  1166  074C  1283               	bcf	3,5	;RP0=0, select bank0
  1167  074D  1303               	bcf	3,6	;RP1=0, select bank0
  1168  074E  00CB               	movwf	??_keypad_readkey
  1169  074F                     u1237:
  1170  074F  0BCB               	decfsz	??_keypad_readkey,f
  1171  0750  2F4F               	goto	u1237
  1172  0751  0000               	nop
  1173  0752                     l1365:
  1174                           
  1175                           ;./kbd.h: 55:     if(RC3==0 && RC2==1 && RC1==0 && RC0==0) {
  1176  0752  1283               	bcf	3,5	;RP0=0, select bank0
  1177  0753  1303               	bcf	3,6	;RP1=0, select bank0
  1178  0754  1987               	btfsc	7,3	;volatile
  1179  0755  2F57               	goto	u791
  1180  0756  2F58               	goto	u790
  1181  0757                     u791:
  1182  0757  2F7C               	goto	l134
  1183  0758                     u790:
  1184  0758                     l1367:
  1185  0758  1D07               	btfss	7,2	;volatile
  1186  0759  2F5B               	goto	u801
  1187  075A  2F5C               	goto	u800
  1188  075B                     u801:
  1189  075B  2F7C               	goto	l134
  1190  075C                     u800:
  1191  075C                     l1369:
  1192  075C  1887               	btfsc	7,1	;volatile
  1193  075D  2F5F               	goto	u811
  1194  075E  2F60               	goto	u810
  1195  075F                     u811:
  1196  075F  2F7C               	goto	l134
  1197  0760                     u810:
  1198  0760                     l1371:
  1199  0760  1807               	btfsc	7,0	;volatile
  1200  0761  2F63               	goto	u821
  1201  0762  2F64               	goto	u820
  1202  0763                     u821:
  1203  0763  2F7C               	goto	l134
  1204  0764                     u820:
  1205  0764                     l1373:
  1206                           
  1207                           ;./kbd.h: 56:         if (RA3 == 1) return '1';
  1208  0764  1D85               	btfss	5,3	;volatile
  1209  0765  2F67               	goto	u831
  1210  0766  2F68               	goto	u830
  1211  0767                     u831:
  1212  0767  2F6A               	goto	l135
  1213  0768                     u830:
  1214  0768                     l1375:
  1215  0768  3031               	movlw	49
  1216  0769  2FE7               	goto	l130
  1217  076A                     l135:
  1218                           
  1219                           ;./kbd.h: 57:         if (RA4 == 1) return '2';
  1220  076A  1E05               	btfss	5,4	;volatile
  1221  076B  2F6D               	goto	u841
  1222  076C  2F6E               	goto	u840
  1223  076D                     u841:
  1224  076D  2F70               	goto	l136
  1225  076E                     u840:
  1226  076E                     l1379:
  1227  076E  3032               	movlw	50
  1228  076F  2FE7               	goto	l130
  1229  0770                     l136:
  1230                           
  1231                           ;./kbd.h: 58:         if (RA5 == 1) return '3';
  1232  0770  1E85               	btfss	5,5	;volatile
  1233  0771  2F73               	goto	u851
  1234  0772  2F74               	goto	u850
  1235  0773                     u851:
  1236  0773  2F76               	goto	l137
  1237  0774                     u850:
  1238  0774                     l1383:
  1239  0774  3033               	movlw	51
  1240  0775  2FE7               	goto	l130
  1241  0776                     l137:
  1242                           
  1243                           ;./kbd.h: 59:         if (RC4 == 1) return '.';
  1244  0776  1E07               	btfss	7,4	;volatile
  1245  0777  2F79               	goto	u861
  1246  0778  2F7A               	goto	u860
  1247  0779                     u861:
  1248  0779  2F7C               	goto	l134
  1249  077A                     u860:
  1250  077A                     l1387:
  1251  077A  302E               	movlw	46
  1252  077B  2FE7               	goto	l130
  1253  077C                     l134:	
  1254                           ;./kbd.h: 60:     }
  1255                           
  1256                           
  1257                           ;./kbd.h: 62:     RC3 = 0;
  1258  077C  1187               	bcf	7,3	;volatile
  1259                           
  1260                           ;./kbd.h: 63:     RC2 = 0;
  1261  077D  1107               	bcf	7,2	;volatile
  1262                           
  1263                           ;./kbd.h: 64:     RC1 = 1;
  1264  077E  1487               	bsf	7,1	;volatile
  1265                           
  1266                           ;./kbd.h: 65:     RC0 = 0;
  1267  077F  1007               	bcf	7,0	;volatile
  1268  0780                     l1391:
  1269                           
  1270                           ;./kbd.h: 66:     _delay((unsigned long)((30)*(32000000/4000000.0)));
  1271  0780  304F               	movlw	79
  1272  0781  1283               	bcf	3,5	;RP0=0, select bank0
  1273  0782  1303               	bcf	3,6	;RP1=0, select bank0
  1274  0783  00CB               	movwf	??_keypad_readkey
  1275  0784                     u1247:
  1276  0784  0BCB               	decfsz	??_keypad_readkey,f
  1277  0785  2F84               	goto	u1247
  1278  0786  0000               	nop
  1279  0787                     l1393:
  1280                           
  1281                           ;./kbd.h: 68:     if(RC3==0 && RC2==0 && RC1==1 && RC0==0) {
  1282  0787  1283               	bcf	3,5	;RP0=0, select bank0
  1283  0788  1303               	bcf	3,6	;RP1=0, select bank0
  1284  0789  1987               	btfsc	7,3	;volatile
  1285  078A  2F8C               	goto	u871
  1286  078B  2F8D               	goto	u870
  1287  078C                     u871:
  1288  078C  2FB1               	goto	l139
  1289  078D                     u870:
  1290  078D                     l1395:
  1291  078D  1907               	btfsc	7,2	;volatile
  1292  078E  2F90               	goto	u881
  1293  078F  2F91               	goto	u880
  1294  0790                     u881:
  1295  0790  2FB1               	goto	l139
  1296  0791                     u880:
  1297  0791                     l1397:
  1298  0791  1C87               	btfss	7,1	;volatile
  1299  0792  2F94               	goto	u891
  1300  0793  2F95               	goto	u890
  1301  0794                     u891:
  1302  0794  2FB1               	goto	l139
  1303  0795                     u890:
  1304  0795                     l1399:
  1305  0795  1807               	btfsc	7,0	;volatile
  1306  0796  2F98               	goto	u901
  1307  0797  2F99               	goto	u900
  1308  0798                     u901:
  1309  0798  2FB1               	goto	l139
  1310  0799                     u900:
  1311  0799                     l1401:
  1312                           
  1313                           ;./kbd.h: 69:         if (RA3 == 1) return '4';
  1314  0799  1D85               	btfss	5,3	;volatile
  1315  079A  2F9C               	goto	u911
  1316  079B  2F9D               	goto	u910
  1317  079C                     u911:
  1318  079C  2F9F               	goto	l140
  1319  079D                     u910:
  1320  079D                     l1403:
  1321  079D  3034               	movlw	52
  1322  079E  2FE7               	goto	l130
  1323  079F                     l140:
  1324                           
  1325                           ;./kbd.h: 70:         if (RA4 == 1) return '5';
  1326  079F  1E05               	btfss	5,4	;volatile
  1327  07A0  2FA2               	goto	u921
  1328  07A1  2FA3               	goto	u920
  1329  07A2                     u921:
  1330  07A2  2FA5               	goto	l141
  1331  07A3                     u920:
  1332  07A3                     l1407:
  1333  07A3  3035               	movlw	53
  1334  07A4  2FE7               	goto	l130
  1335  07A5                     l141:
  1336                           
  1337                           ;./kbd.h: 71:         if (RA5 == 1) return '6';
  1338  07A5  1E85               	btfss	5,5	;volatile
  1339  07A6  2FA8               	goto	u931
  1340  07A7  2FA9               	goto	u930
  1341  07A8                     u931:
  1342  07A8  2FAB               	goto	l142
  1343  07A9                     u930:
  1344  07A9                     l1411:
  1345  07A9  3036               	movlw	54
  1346  07AA  2FE7               	goto	l130
  1347  07AB                     l142:
  1348                           
  1349                           ;./kbd.h: 72:         if (RC4 == 1) return '*';
  1350  07AB  1E07               	btfss	7,4	;volatile
  1351  07AC  2FAE               	goto	u941
  1352  07AD  2FAF               	goto	u940
  1353  07AE                     u941:
  1354  07AE  2FB1               	goto	l139
  1355  07AF                     u940:
  1356  07AF                     l1415:
  1357  07AF  302A               	movlw	42
  1358  07B0  2FE7               	goto	l130
  1359  07B1                     l139:	
  1360                           ;./kbd.h: 73:     }
  1361                           
  1362                           
  1363                           ;./kbd.h: 75:     RC3 = 0;
  1364  07B1  1187               	bcf	7,3	;volatile
  1365                           
  1366                           ;./kbd.h: 76:     RC2 = 0;
  1367  07B2  1107               	bcf	7,2	;volatile
  1368                           
  1369                           ;./kbd.h: 77:     RC1 = 0;
  1370  07B3  1087               	bcf	7,1	;volatile
  1371                           
  1372                           ;./kbd.h: 78:     RC0 = 1;
  1373  07B4  1407               	bsf	7,0	;volatile
  1374  07B5                     l1419:
  1375                           
  1376                           ;./kbd.h: 79:     _delay((unsigned long)((30)*(32000000/4000000.0)));
  1377  07B5  304F               	movlw	79
  1378  07B6  1283               	bcf	3,5	;RP0=0, select bank0
  1379  07B7  1303               	bcf	3,6	;RP1=0, select bank0
  1380  07B8  00CB               	movwf	??_keypad_readkey
  1381  07B9                     u1257:
  1382  07B9  0BCB               	decfsz	??_keypad_readkey,f
  1383  07BA  2FB9               	goto	u1257
  1384  07BB  0000               	nop
  1385  07BC                     l1421:
  1386                           
  1387                           ;./kbd.h: 81:     if(RC3==0 && RC2==0 && RC1==0 && RC0==1) {
  1388  07BC  1283               	bcf	3,5	;RP0=0, select bank0
  1389  07BD  1303               	bcf	3,6	;RP1=0, select bank0
  1390  07BE  1987               	btfsc	7,3	;volatile
  1391  07BF  2FC1               	goto	u951
  1392  07C0  2FC2               	goto	u950
  1393  07C1                     u951:
  1394  07C1  2FE6               	goto	l1447
  1395  07C2                     u950:
  1396  07C2                     l1423:
  1397  07C2  1907               	btfsc	7,2	;volatile
  1398  07C3  2FC5               	goto	u961
  1399  07C4  2FC6               	goto	u960
  1400  07C5                     u961:
  1401  07C5  2FE6               	goto	l1447
  1402  07C6                     u960:
  1403  07C6                     l1425:
  1404  07C6  1887               	btfsc	7,1	;volatile
  1405  07C7  2FC9               	goto	u971
  1406  07C8  2FCA               	goto	u970
  1407  07C9                     u971:
  1408  07C9  2FE6               	goto	l1447
  1409  07CA                     u970:
  1410  07CA                     l1427:
  1411  07CA  1C07               	btfss	7,0	;volatile
  1412  07CB  2FCD               	goto	u981
  1413  07CC  2FCE               	goto	u980
  1414  07CD                     u981:
  1415  07CD  2FE6               	goto	l1447
  1416  07CE                     u980:
  1417  07CE                     l1429:
  1418                           
  1419                           ;./kbd.h: 82:         if (RA3 == 1) return '7';
  1420  07CE  1D85               	btfss	5,3	;volatile
  1421  07CF  2FD1               	goto	u991
  1422  07D0  2FD2               	goto	u990
  1423  07D1                     u991:
  1424  07D1  2FD4               	goto	l145
  1425  07D2                     u990:
  1426  07D2                     l1431:
  1427  07D2  3037               	movlw	55
  1428  07D3  2FE7               	goto	l130
  1429  07D4                     l145:
  1430                           
  1431                           ;./kbd.h: 83:         if (RA4 == 1) return '8';
  1432  07D4  1E05               	btfss	5,4	;volatile
  1433  07D5  2FD7               	goto	u1001
  1434  07D6  2FD8               	goto	u1000
  1435  07D7                     u1001:
  1436  07D7  2FDA               	goto	l146
  1437  07D8                     u1000:
  1438  07D8                     l1435:
  1439  07D8  3038               	movlw	56
  1440  07D9  2FE7               	goto	l130
  1441  07DA                     l146:
  1442                           
  1443                           ;./kbd.h: 84:         if (RA5 == 1) return '9';
  1444  07DA  1E85               	btfss	5,5	;volatile
  1445  07DB  2FDD               	goto	u1011
  1446  07DC  2FDE               	goto	u1010
  1447  07DD                     u1011:
  1448  07DD  2FE0               	goto	l147
  1449  07DE                     u1010:
  1450  07DE                     l1439:
  1451  07DE  3039               	movlw	57
  1452  07DF  2FE7               	goto	l130
  1453  07E0                     l147:
  1454                           
  1455                           ;./kbd.h: 85:         if (RC4 == 1) return '/';
  1456  07E0  1E07               	btfss	7,4	;volatile
  1457  07E1  2FE3               	goto	u1021
  1458  07E2  2FE4               	goto	u1020
  1459  07E3                     u1021:
  1460  07E3  2FE6               	goto	l1447
  1461  07E4                     u1020:
  1462  07E4                     l1443:
  1463  07E4  302F               	movlw	47
  1464  07E5  2FE7               	goto	l130
  1465  07E6                     l1447:
  1466                           
  1467                           ;./kbd.h: 87:  return 'x';
  1468  07E6  3078               	movlw	120
  1469  07E7                     l130:
  1470  07E7  0008               	return
  1471  07E8                     __end_of_keypad_readkey:
  1472                           
  1473                           	psect	text4
  1474  055F                     __ptext4:	
  1475 ;; *************** function _inicio_presentacion *****************
  1476 ;; Defined at:
  1477 ;;		line 226 in file "main.c"
  1478 ;; Parameters:    Size  Location     Type
  1479 ;;		None
  1480 ;; Auto vars:     Size  Location     Type
  1481 ;;  i               2   13[BANK0 ] int 
  1482 ;; Return value:  Size  Location     Type
  1483 ;;                  1    wreg      void 
  1484 ;; Registers used:
  1485 ;;		wreg, fsr0l, fsr0h, status,2, status,0, btemp+1, pclath, cstack
  1486 ;; Tracked objects:
  1487 ;;		On entry : 0/0
  1488 ;;		On exit  : 0/0
  1489 ;;		Unchanged: 0/0
  1490 ;; Data sizes:     COMMON   BANK0   BANK1
  1491 ;;      Params:         0       0       0
  1492 ;;      Locals:         0       2       0
  1493 ;;      Temps:          0       3       0
  1494 ;;      Totals:         0       5       0
  1495 ;;Total ram usage:        5 bytes
  1496 ;; Hardware stack levels used: 1
  1497 ;; Hardware stack levels required when called: 3
  1498 ;; This function calls:
  1499 ;;		_LCD_Cmd
  1500 ;;		_LCD_Goto
  1501 ;;		_LCD_Print
  1502 ;; This function is called by:
  1503 ;;		_main
  1504 ;; This function uses a non-reentrant model
  1505 ;;
  1506                           
  1507                           
  1508                           ;psect for function _inicio_presentacion
  1509  055F                     _inicio_presentacion:
  1510  055F                     l1577:	
  1511                           ;incstack = 0
  1512                           ; Regs used in _inicio_presentacion: [wreg-fsr0h+status,2+status,0+btemp+1+pclath+cstack
      +                          ]
  1513                           
  1514                           
  1515                           ;main.c: 228:     LCD_Goto(1,1);
  1516  055F  1283               	bcf	3,5	;RP0=0, select bank0
  1517  0560  1303               	bcf	3,6	;RP1=0, select bank0
  1518  0561  01D1               	clrf	LCD_Goto@row
  1519  0562  0AD1               	incf	LCD_Goto@row,f
  1520  0563  3001               	movlw	1
  1521  0564  118A  248F  118A   	fcall	_LCD_Goto
  1522  0567                     l1579:
  1523                           
  1524                           ;main.c: 229:     LCD_Print(M);
  1525  0567  3022               	movlw	(low (_M| 0))& (0+255)
  1526  0568  1283               	bcf	3,5	;RP0=0, select bank0
  1527  0569  1303               	bcf	3,6	;RP1=0, select bank0
  1528  056A  00CE               	movwf	LCD_Print@LCD_Str
  1529  056B  3000               	movlw	0
  1530  056C  00CF               	movwf	LCD_Print@LCD_Str+1
  1531  056D  118A  24BF  118A   	fcall	_LCD_Print
  1532  0570                     l1581:
  1533                           
  1534                           ;main.c: 230:     _delay((unsigned long)((50)*(32000000/4000.0)));
  1535  0570  3003               	movlw	3
  1536  0571  1283               	bcf	3,5	;RP0=0, select bank0
  1537  0572  1303               	bcf	3,6	;RP1=0, select bank0
  1538  0573  00D7               	movwf	??_inicio_presentacion+2
  1539  0574  3008               	movlw	8
  1540  0575  00D6               	movwf	??_inicio_presentacion+1
  1541  0576  3076               	movlw	118
  1542  0577  00D5               	movwf	??_inicio_presentacion
  1543  0578                     u1267:
  1544  0578  0BD5               	decfsz	??_inicio_presentacion,f
  1545  0579  2D78               	goto	u1267
  1546  057A  0BD6               	decfsz	??_inicio_presentacion+1,f
  1547  057B  2D78               	goto	u1267
  1548  057C  0BD7               	decfsz	??_inicio_presentacion+2,f
  1549  057D  2D78               	goto	u1267
  1550  057E  2D7F               	nop2
  1551  057F                     l1583:
  1552                           
  1553                           ;main.c: 231:     for(int i=0;i<40;i++){
  1554  057F  1283               	bcf	3,5	;RP0=0, select bank0
  1555  0580  1303               	bcf	3,6	;RP1=0, select bank0
  1556  0581  01D8               	clrf	inicio_presentacion@i
  1557  0582  01D9               	clrf	inicio_presentacion@i+1
  1558  0583                     l1589:
  1559                           
  1560                           ;main.c: 232:         LCD_Cmd(0x18);
  1561  0583  3018               	movlw	24
  1562  0584  118A  2461  118A   	fcall	_LCD_Cmd
  1563  0587                     l1591:
  1564                           
  1565                           ;main.c: 233:         _delay((unsigned long)((40)*(32000000/4000.0)));
  1566  0587  3002               	movlw	2
  1567  0588  1283               	bcf	3,5	;RP0=0, select bank0
  1568  0589  1303               	bcf	3,6	;RP1=0, select bank0
  1569  058A  00D7               	movwf	??_inicio_presentacion+2
  1570  058B  30A0               	movlw	160
  1571  058C  00D6               	movwf	??_inicio_presentacion+1
  1572  058D  3092               	movlw	146
  1573  058E  00D5               	movwf	??_inicio_presentacion
  1574  058F                     u1277:
  1575  058F  0BD5               	decfsz	??_inicio_presentacion,f
  1576  0590  2D8F               	goto	u1277
  1577  0591  0BD6               	decfsz	??_inicio_presentacion+1,f
  1578  0592  2D8F               	goto	u1277
  1579  0593  0BD7               	decfsz	??_inicio_presentacion+2,f
  1580  0594  2D8F               	goto	u1277
  1581  0595                     l1593:
  1582                           
  1583                           ;main.c: 234:     }
  1584  0595  3001               	movlw	1
  1585  0596  1283               	bcf	3,5	;RP0=0, select bank0
  1586  0597  1303               	bcf	3,6	;RP1=0, select bank0
  1587  0598  07D8               	addwf	inicio_presentacion@i,f
  1588  0599  1803               	skipnc
  1589  059A  0AD9               	incf	inicio_presentacion@i+1,f
  1590  059B  3000               	movlw	0
  1591  059C  07D9               	addwf	inicio_presentacion@i+1,f
  1592  059D                     l1595:
  1593  059D  0859               	movf	inicio_presentacion@i+1,w
  1594  059E  3A80               	xorlw	128
  1595  059F  00FF               	movwf	btemp+1
  1596  05A0  3080               	movlw	128
  1597  05A1  027F               	subwf	btemp+1,w
  1598  05A2  1D03               	skipz
  1599  05A3  2DA6               	goto	u1155
  1600  05A4  3028               	movlw	40
  1601  05A5  0258               	subwf	inicio_presentacion@i,w
  1602  05A6                     u1155:
  1603  05A6  1C03               	skipc
  1604  05A7  2DA9               	goto	u1151
  1605  05A8  2DAA               	goto	u1150
  1606  05A9                     u1151:
  1607  05A9  2D83               	goto	l1589
  1608  05AA                     u1150:
  1609  05AA                     l1597:
  1610                           
  1611                           ;main.c: 235:     _delay((unsigned long)((50)*(32000000/4000.0)));
  1612  05AA  3003               	movlw	3
  1613  05AB  1283               	bcf	3,5	;RP0=0, select bank0
  1614  05AC  1303               	bcf	3,6	;RP1=0, select bank0
  1615  05AD  00D7               	movwf	??_inicio_presentacion+2
  1616  05AE  3008               	movlw	8
  1617  05AF  00D6               	movwf	??_inicio_presentacion+1
  1618  05B0  3076               	movlw	118
  1619  05B1  00D5               	movwf	??_inicio_presentacion
  1620  05B2                     u1287:
  1621  05B2  0BD5               	decfsz	??_inicio_presentacion,f
  1622  05B3  2DB2               	goto	u1287
  1623  05B4  0BD6               	decfsz	??_inicio_presentacion+1,f
  1624  05B5  2DB2               	goto	u1287
  1625  05B6  0BD7               	decfsz	??_inicio_presentacion+2,f
  1626  05B7  2DB2               	goto	u1287
  1627  05B8  2DB9               	nop2
  1628  05B9                     l1599:
  1629                           
  1630                           ;main.c: 236:     LCD_Cmd(0x01);
  1631  05B9  3001               	movlw	1
  1632  05BA  118A  2461  118A   	fcall	_LCD_Cmd
  1633  05BD                     l1601:
  1634                           
  1635                           ;main.c: 237:     LCD_Goto(1, 1);
  1636  05BD  1283               	bcf	3,5	;RP0=0, select bank0
  1637  05BE  1303               	bcf	3,6	;RP1=0, select bank0
  1638  05BF  01D1               	clrf	LCD_Goto@row
  1639  05C0  0AD1               	incf	LCD_Goto@row,f
  1640  05C1  3001               	movlw	1
  1641  05C2  118A  248F  118A   	fcall	_LCD_Goto
  1642  05C5                     l221:
  1643  05C5  0008               	return
  1644  05C6                     __end_of_inicio_presentacion:
  1645                           
  1646                           	psect	text5
  1647  04BF                     __ptext5:	
  1648 ;; *************** function _LCD_Print *****************
  1649 ;; Defined at:
  1650 ;;		line 113 in file "./lcd.h"
  1651 ;; Parameters:    Size  Location     Type
  1652 ;;  LCD_Str         2    3[BANK0 ] PTR unsigned char 
  1653 ;;		 -> M(41), STR_11(4), STR_10(5), STR_9(3), 
  1654 ;;		 -> STR_8(6), STR_7(6), STR_6(6), STR_5(5), 
  1655 ;;		 -> STR_4(6), STR_3(6), STR_2(6), STR_1(3), 
  1656 ;; Auto vars:     Size  Location     Type
  1657 ;;  i               1    6[BANK0 ] unsigned char 
  1658 ;; Return value:  Size  Location     Type
  1659 ;;                  1    wreg      void 
  1660 ;; Registers used:
  1661 ;;		wreg, fsr0l, fsr0h, status,2, status,0, btemp+1, pclath, cstack
  1662 ;; Tracked objects:
  1663 ;;		On entry : 0/0
  1664 ;;		On exit  : 0/0
  1665 ;;		Unchanged: 0/0
  1666 ;; Data sizes:     COMMON   BANK0   BANK1
  1667 ;;      Params:         0       2       0
  1668 ;;      Locals:         0       1       0
  1669 ;;      Temps:          0       1       0
  1670 ;;      Totals:         0       4       0
  1671 ;;Total ram usage:        4 bytes
  1672 ;; Hardware stack levels used: 1
  1673 ;; Hardware stack levels required when called: 1
  1674 ;; This function calls:
  1675 ;;		_LCD_Write_Nibble
  1676 ;; This function is called by:
  1677 ;;		_main
  1678 ;;		_inicio_presentacion
  1679 ;;		_evaluar_dato
  1680 ;;		_imprimir_valor_leds
  1681 ;; This function uses a non-reentrant model
  1682 ;;
  1683                           
  1684                           
  1685                           ;psect for function _LCD_Print
  1686  04BF                     _LCD_Print:
  1687  04BF                     l1323:	
  1688                           ;incstack = 0
  1689                           ; Regs used in _LCD_Print: [wreg-fsr0h+status,2+status,0+btemp+1+pclath+cstack]
  1690                           
  1691                           
  1692                           ;./lcd.h: 113: void LCD_Print(char* LCD_Str);./lcd.h: 114: {;./lcd.h: 115:   uint8_t i =
      +                           0;
  1693  04BF  1283               	bcf	3,5	;RP0=0, select bank0
  1694  04C0  1303               	bcf	3,6	;RP1=0, select bank0
  1695  04C1  01D1               	clrf	LCD_Print@i
  1696  04C2                     l1325:
  1697                           
  1698                           ;./lcd.h: 116:   RS = 1;
  1699  04C2  1468               	bsf	_RS/(0+8),_RS& (0+7)
  1700                           
  1701                           ;./lcd.h: 117:   while(LCD_Str[i] != '\0')
  1702  04C3  2CEE               	goto	l1331
  1703  04C4                     l1327:
  1704                           
  1705                           ;./lcd.h: 118:   {;./lcd.h: 119:     LCD_Write_Nibble(LCD_Str[i] >> 4);
  1706  04C4  0851               	movf	LCD_Print@i,w
  1707  04C5  074E               	addwf	LCD_Print@LCD_Str,w
  1708  04C6  0084               	movwf	4
  1709  04C7  084F               	movf	LCD_Print@LCD_Str+1,w
  1710  04C8  1803               	skipnc
  1711  04C9  0A4F               	incf	LCD_Print@LCD_Str+1,w
  1712  04CA  00FF               	movwf	btemp+1
  1713  04CB  118A  2002  118A   	fcall	stringtab
  1714  04CE  00D0               	movwf	??_LCD_Print
  1715  04CF  3004               	movlw	4
  1716  04D0                     u695:
  1717  04D0  1003               	clrc
  1718  04D1  0CD0               	rrf	??_LCD_Print,f
  1719  04D2  3EFF               	addlw	-1
  1720  04D3  1D03               	skipz
  1721  04D4  2CD0               	goto	u695
  1722  04D5  0850               	movf	??_LCD_Print,w
  1723  04D6  118A  24FE  118A   	fcall	_LCD_Write_Nibble
  1724                           
  1725                           ;./lcd.h: 120:     LCD_Write_Nibble(LCD_Str[i++] );
  1726  04D9  1283               	bcf	3,5	;RP0=0, select bank0
  1727  04DA  1303               	bcf	3,6	;RP1=0, select bank0
  1728  04DB  0851               	movf	LCD_Print@i,w
  1729  04DC  074E               	addwf	LCD_Print@LCD_Str,w
  1730  04DD  0084               	movwf	4
  1731  04DE  084F               	movf	LCD_Print@LCD_Str+1,w
  1732  04DF  1803               	skipnc
  1733  04E0  0A4F               	incf	LCD_Print@LCD_Str+1,w
  1734  04E1  00FF               	movwf	btemp+1
  1735  04E2  118A  2002  118A   	fcall	stringtab
  1736  04E5  118A  24FE  118A   	fcall	_LCD_Write_Nibble
  1737  04E8                     l1329:
  1738  04E8  3001               	movlw	1
  1739  04E9  1283               	bcf	3,5	;RP0=0, select bank0
  1740  04EA  1303               	bcf	3,6	;RP1=0, select bank0
  1741  04EB  00D0               	movwf	??_LCD_Print
  1742  04EC  0850               	movf	??_LCD_Print,w
  1743  04ED  07D1               	addwf	LCD_Print@i,f
  1744  04EE                     l1331:
  1745                           
  1746                           ;./lcd.h: 117:   while(LCD_Str[i] != '\0')
  1747  04EE  0851               	movf	LCD_Print@i,w
  1748  04EF  074E               	addwf	LCD_Print@LCD_Str,w
  1749  04F0  0084               	movwf	4
  1750  04F1  084F               	movf	LCD_Print@LCD_Str+1,w
  1751  04F2  1803               	skipnc
  1752  04F3  0A4F               	incf	LCD_Print@LCD_Str+1,w
  1753  04F4  00FF               	movwf	btemp+1
  1754  04F5  118A  2002  118A   	fcall	stringtab
  1755  04F8  3A00               	xorlw	0
  1756  04F9  1D03               	skipz
  1757  04FA  2CFC               	goto	u701
  1758  04FB  2CFD               	goto	u700
  1759  04FC                     u701:
  1760  04FC  2CC4               	goto	l1327
  1761  04FD                     u700:
  1762  04FD                     l107:
  1763  04FD  0008               	return
  1764  04FE                     __end_of_LCD_Print:
  1765                           
  1766                           	psect	text6
  1767  048F                     __ptext6:	
  1768 ;; *************** function _LCD_Goto *****************
  1769 ;; Defined at:
  1770 ;;		line 87 in file "./lcd.h"
  1771 ;; Parameters:    Size  Location     Type
  1772 ;;  col             1    wreg     unsigned char 
  1773 ;;  row             1    6[BANK0 ] unsigned char 
  1774 ;; Auto vars:     Size  Location     Type
  1775 ;;  col             1    9[BANK0 ] unsigned char 
  1776 ;; Return value:  Size  Location     Type
  1777 ;;                  1    wreg      void 
  1778 ;; Registers used:
  1779 ;;		wreg, fsr0l, fsr0h, status,2, status,0, pclath, cstack
  1780 ;; Tracked objects:
  1781 ;;		On entry : 0/0
  1782 ;;		On exit  : 0/0
  1783 ;;		Unchanged: 0/0
  1784 ;; Data sizes:     COMMON   BANK0   BANK1
  1785 ;;      Params:         0       1       0
  1786 ;;      Locals:         0       1       0
  1787 ;;      Temps:          0       2       0
  1788 ;;      Totals:         0       4       0
  1789 ;;Total ram usage:        4 bytes
  1790 ;; Hardware stack levels used: 1
  1791 ;; Hardware stack levels required when called: 2
  1792 ;; This function calls:
  1793 ;;		_LCD_Cmd
  1794 ;; This function is called by:
  1795 ;;		_main
  1796 ;;		_inicio_presentacion
  1797 ;; This function uses a non-reentrant model
  1798 ;;
  1799                           
  1800                           
  1801                           ;psect for function _LCD_Goto
  1802  048F                     _LCD_Goto:
  1803                           
  1804                           ;incstack = 0
  1805                           ; Regs used in _LCD_Goto: [wreg-fsr0h+status,2+status,0+pclath+cstack]
  1806                           ;LCD_Goto@col stored from wreg
  1807  048F  1283               	bcf	3,5	;RP0=0, select bank0
  1808  0490  1303               	bcf	3,6	;RP1=0, select bank0
  1809  0491  00D4               	movwf	LCD_Goto@col
  1810  0492                     l1305:
  1811                           
  1812                           ;./lcd.h: 87: void LCD_Goto(uint8_t col, uint8_t row);./lcd.h: 88: {;./lcd.h: 89:   swit
      +                          ch(row)
  1813  0492  2CAB               	goto	l1315
  1814  0493                     l1307:
  1815                           
  1816                           ;./lcd.h: 92:       LCD_Cmd(0xC0 + col - 1);
  1817  0493  0854               	movf	LCD_Goto@col,w
  1818  0494  3EBF               	addlw	191
  1819  0495  118A  2461  118A   	fcall	_LCD_Cmd
  1820                           
  1821                           ;./lcd.h: 93:       break;
  1822  0498  2CBE               	goto	l98
  1823  0499                     l1309:
  1824                           
  1825                           ;./lcd.h: 95:       LCD_Cmd(0x94 + col - 1);
  1826  0499  0854               	movf	LCD_Goto@col,w
  1827  049A  3E93               	addlw	147
  1828  049B  118A  2461  118A   	fcall	_LCD_Cmd
  1829                           
  1830                           ;./lcd.h: 96:       break;
  1831  049E  2CBE               	goto	l98
  1832  049F                     l1311:
  1833                           
  1834                           ;./lcd.h: 98:       LCD_Cmd(0xD4 + col - 1);
  1835  049F  0854               	movf	LCD_Goto@col,w
  1836  04A0  3ED3               	addlw	211
  1837  04A1  118A  2461  118A   	fcall	_LCD_Cmd
  1838                           
  1839                           ;./lcd.h: 99:     break;
  1840  04A4  2CBE               	goto	l98
  1841  04A5                     l1313:
  1842                           
  1843                           ;./lcd.h: 101:       LCD_Cmd(0x80 + col - 1);
  1844  04A5  0854               	movf	LCD_Goto@col,w
  1845  04A6  3E7F               	addlw	127
  1846  04A7  118A  2461  118A   	fcall	_LCD_Cmd
  1847                           
  1848                           ;./lcd.h: 102:   }
  1849  04AA  2CBE               	goto	l98
  1850  04AB                     l1315:
  1851  04AB  0851               	movf	LCD_Goto@row,w
  1852  04AC  00D2               	movwf	??_LCD_Goto
  1853  04AD  01D3               	clrf	??_LCD_Goto+1
  1854                           
  1855                           ; Switch on 2 bytes has been partitioned into a top level switch of size 1, and 1 sub-sw
      +                          itches
  1856                           ; Switch size 1, requested type "simple"
  1857                           ; Number of cases is 1, Range of values is 0 to 0
  1858                           ; switch strategies available:
  1859                           ; Name         Instructions Cycles
  1860                           ; simple_byte            4     3 (average)
  1861                           ; direct_byte            9     7 (fixed)
  1862                           ; jumptable            260     6 (fixed)
  1863                           ;	Chosen strategy is simple_byte
  1864  04AE  0853               	movf	??_LCD_Goto+1,w
  1865  04AF  3A00               	xorlw	0	; case 0
  1866  04B0  1903               	skipnz
  1867  04B1  2CB3               	goto	l1689
  1868  04B2  2CA5               	goto	l1313
  1869  04B3                     l1689:
  1870                           
  1871                           ; Switch size 1, requested type "simple"
  1872                           ; Number of cases is 3, Range of values is 2 to 4
  1873                           ; switch strategies available:
  1874                           ; Name         Instructions Cycles
  1875                           ; simple_byte           10     6 (average)
  1876                           ; direct_byte           16    10 (fixed)
  1877                           ; jumptable            263     9 (fixed)
  1878                           ;	Chosen strategy is simple_byte
  1879  04B3  0852               	movf	??_LCD_Goto,w
  1880  04B4  3A02               	xorlw	2	; case 2
  1881  04B5  1903               	skipnz
  1882  04B6  2C93               	goto	l1307
  1883  04B7  3A01               	xorlw	1	; case 3
  1884  04B8  1903               	skipnz
  1885  04B9  2C99               	goto	l1309
  1886  04BA  3A07               	xorlw	7	; case 4
  1887  04BB  1903               	skipnz
  1888  04BC  2C9F               	goto	l1311
  1889  04BD  2CA5               	goto	l1313
  1890  04BE                     l98:
  1891  04BE  0008               	return
  1892  04BF                     __end_of_LCD_Goto:
  1893                           
  1894                           	psect	text7
  1895  03C3                     __ptext7:	
  1896 ;; *************** function _iniciar_puertos *****************
  1897 ;; Defined at:
  1898 ;;		line 199 in file "main.c"
  1899 ;; Parameters:    Size  Location     Type
  1900 ;;		None
  1901 ;; Auto vars:     Size  Location     Type
  1902 ;;		None
  1903 ;; Return value:  Size  Location     Type
  1904 ;;                  1    wreg      void 
  1905 ;; Registers used:
  1906 ;;		wreg, status,2
  1907 ;; Tracked objects:
  1908 ;;		On entry : 0/0
  1909 ;;		On exit  : 0/0
  1910 ;;		Unchanged: 0/0
  1911 ;; Data sizes:     COMMON   BANK0   BANK1
  1912 ;;      Params:         0       0       0
  1913 ;;      Locals:         0       0       0
  1914 ;;      Temps:          0       0       0
  1915 ;;      Totals:         0       0       0
  1916 ;;Total ram usage:        0 bytes
  1917 ;; Hardware stack levels used: 1
  1918 ;; This function calls:
  1919 ;;		Nothing
  1920 ;; This function is called by:
  1921 ;;		_main
  1922 ;; This function uses a non-reentrant model
  1923 ;;
  1924                           
  1925                           
  1926                           ;psect for function _iniciar_puertos
  1927  03C3                     _iniciar_puertos:
  1928  03C3                     l1553:	
  1929                           ;incstack = 0
  1930                           ; Regs used in _iniciar_puertos: [wreg+status,2]
  1931                           
  1932                           
  1933                           ;main.c: 203:     PORTC=0X00;
  1934  03C3  1283               	bcf	3,5	;RP0=0, select bank0
  1935  03C4  1303               	bcf	3,6	;RP1=0, select bank0
  1936  03C5  0187               	clrf	7	;volatile
  1937                           
  1938                           ;main.c: 204:     PORTA = 0;
  1939  03C6  0185               	clrf	5	;volatile
  1940                           
  1941                           ;main.c: 205:     PORTB = 0;
  1942  03C7  0186               	clrf	6	;volatile
  1943                           
  1944                           ;main.c: 206:     PORTC = 0;
  1945  03C8  0187               	clrf	7	;volatile
  1946  03C9                     l1555:
  1947                           
  1948                           ;main.c: 208:     TRISCbits.TRISC0 = 0;
  1949  03C9  1683               	bsf	3,5	;RP0=1, select bank1
  1950  03CA  1303               	bcf	3,6	;RP1=0, select bank1
  1951  03CB  1007               	bcf	7,0	;volatile
  1952  03CC                     l1557:
  1953                           
  1954                           ;main.c: 209:     TRISCbits.TRISC1 = 0;
  1955  03CC  1087               	bcf	7,1	;volatile
  1956  03CD                     l1559:
  1957                           
  1958                           ;main.c: 210:     TRISCbits.TRISC2 = 0;
  1959  03CD  1107               	bcf	7,2	;volatile
  1960  03CE                     l1561:
  1961                           
  1962                           ;main.c: 211:     TRISCbits.TRISC3 = 0;
  1963  03CE  1187               	bcf	7,3	;volatile
  1964  03CF                     l1563:
  1965                           
  1966                           ;main.c: 212:     TRISCbits.TRISC4 = 1;
  1967  03CF  1607               	bsf	7,4	;volatile
  1968  03D0                     l1565:
  1969                           
  1970                           ;main.c: 213:     TRISCbits.TRISC6 = 0;
  1971  03D0  1307               	bcf	7,6	;volatile
  1972  03D1                     l1567:
  1973                           
  1974                           ;main.c: 214:     TRISCbits.TRISC7 = 1;
  1975  03D1  1787               	bsf	7,7	;volatile
  1976  03D2                     l1569:
  1977                           
  1978                           ;main.c: 216:     TRISAbits.TRISA0 = 0;
  1979  03D2  1005               	bcf	5,0	;volatile
  1980  03D3                     l1571:
  1981                           
  1982                           ;main.c: 217:     TRISAbits.TRISA1 = 0;
  1983  03D3  1085               	bcf	5,1	;volatile
  1984  03D4                     l1573:
  1985                           
  1986                           ;main.c: 218:     TRISAbits.TRISA2 = 0;
  1987  03D4  1105               	bcf	5,2	;volatile
  1988  03D5                     l1575:
  1989                           
  1990                           ;main.c: 223:     ADCON1 = 0b00000110;
  1991  03D5  3006               	movlw	6
  1992  03D6  009F               	movwf	31	;volatile
  1993  03D7                     l216:
  1994  03D7  0008               	return
  1995  03D8                     __end_of_iniciar_puertos:
  1996                           
  1997                           	psect	text8
  1998  03D8                     __ptext8:	
  1999 ;; *************** function _LCD_PutC *****************
  2000 ;; Defined at:
  2001 ;;		line 106 in file "./lcd.h"
  2002 ;; Parameters:    Size  Location     Type
  2003 ;;  LCD_Char        1    wreg     unsigned char 
  2004 ;; Auto vars:     Size  Location     Type
  2005 ;;  LCD_Char        1    4[BANK0 ] unsigned char 
  2006 ;; Return value:  Size  Location     Type
  2007 ;;                  1    wreg      void 
  2008 ;; Registers used:
  2009 ;;		wreg, status,2, status,0, pclath, cstack
  2010 ;; Tracked objects:
  2011 ;;		On entry : 0/0
  2012 ;;		On exit  : 0/0
  2013 ;;		Unchanged: 0/0
  2014 ;; Data sizes:     COMMON   BANK0   BANK1
  2015 ;;      Params:         0       0       0
  2016 ;;      Locals:         0       1       0
  2017 ;;      Temps:          0       1       0
  2018 ;;      Totals:         0       2       0
  2019 ;;Total ram usage:        2 bytes
  2020 ;; Hardware stack levels used: 1
  2021 ;; Hardware stack levels required when called: 1
  2022 ;; This function calls:
  2023 ;;		_LCD_Write_Nibble
  2024 ;; This function is called by:
  2025 ;;		_main
  2026 ;; This function uses a non-reentrant model
  2027 ;;
  2028                           
  2029                           
  2030                           ;psect for function _LCD_PutC
  2031  03D8                     _LCD_PutC:
  2032                           
  2033                           ;incstack = 0
  2034                           ; Regs used in _LCD_PutC: [wreg+status,2+status,0+pclath+cstack]
  2035                           ;LCD_PutC@LCD_Char stored from wreg
  2036  03D8  1283               	bcf	3,5	;RP0=0, select bank0
  2037  03D9  1303               	bcf	3,6	;RP1=0, select bank0
  2038  03DA  00CF               	movwf	LCD_PutC@LCD_Char
  2039  03DB                     l1451:
  2040                           
  2041                           ;./lcd.h: 106: void LCD_PutC(char LCD_Char);./lcd.h: 107: {;./lcd.h: 108:   RS = 1;
  2042  03DB  1468               	bsf	_RS/(0+8),_RS& (0+7)
  2043  03DC                     l1453:
  2044                           
  2045                           ;./lcd.h: 109:   LCD_Write_Nibble(LCD_Char >> 4);
  2046  03DC  084F               	movf	LCD_PutC@LCD_Char,w
  2047  03DD  00CE               	movwf	??_LCD_PutC
  2048  03DE  3004               	movlw	4
  2049  03DF                     u1035:
  2050  03DF  1003               	clrc
  2051  03E0  0CCE               	rrf	??_LCD_PutC,f
  2052  03E1  3EFF               	addlw	-1
  2053  03E2  1D03               	skipz
  2054  03E3  2BDF               	goto	u1035
  2055  03E4  084E               	movf	??_LCD_PutC,w
  2056  03E5  118A  24FE  118A   	fcall	_LCD_Write_Nibble
  2057                           
  2058                           ;./lcd.h: 110:   LCD_Write_Nibble(LCD_Char );
  2059  03E8  1283               	bcf	3,5	;RP0=0, select bank0
  2060  03E9  1303               	bcf	3,6	;RP1=0, select bank0
  2061  03EA  084F               	movf	LCD_PutC@LCD_Char,w
  2062  03EB  118A  24FE  118A   	fcall	_LCD_Write_Nibble
  2063  03EE                     l101:
  2064  03EE  0008               	return
  2065  03EF                     __end_of_LCD_PutC:
  2066                           
  2067                           	psect	text9
  2068  0653                     __ptext9:	
  2069 ;; *************** function _LCD_Begin *****************
  2070 ;; Defined at:
  2071 ;;		line 124 in file "./lcd.h"
  2072 ;; Parameters:    Size  Location     Type
  2073 ;;		None
  2074 ;; Auto vars:     Size  Location     Type
  2075 ;;		None
  2076 ;; Return value:  Size  Location     Type
  2077 ;;                  1    wreg      void 
  2078 ;; Registers used:
  2079 ;;		wreg, status,2, status,0, pclath, cstack
  2080 ;; Tracked objects:
  2081 ;;		On entry : 0/0
  2082 ;;		On exit  : 0/0
  2083 ;;		Unchanged: 0/0
  2084 ;; Data sizes:     COMMON   BANK0   BANK1
  2085 ;;      Params:         0       0       0
  2086 ;;      Locals:         0       0       0
  2087 ;;      Temps:          0       3       0
  2088 ;;      Totals:         0       3       0
  2089 ;;Total ram usage:        3 bytes
  2090 ;; Hardware stack levels used: 1
  2091 ;; Hardware stack levels required when called: 2
  2092 ;; This function calls:
  2093 ;;		_LCD_Cmd
  2094 ;; This function is called by:
  2095 ;;		_main
  2096 ;; This function uses a non-reentrant model
  2097 ;;
  2098                           
  2099                           
  2100                           ;psect for function _LCD_Begin
  2101  0653                     _LCD_Begin:
  2102  0653                     l1455:	
  2103                           ;incstack = 0
  2104                           ; Regs used in _LCD_Begin: [wreg+status,2+status,0+pclath+cstack]
  2105                           
  2106                           
  2107                           ;./lcd.h: 126:   RS = 0;
  2108  0653  1283               	bcf	3,5	;RP0=0, select bank0
  2109  0654  1303               	bcf	3,6	;RP1=0, select bank0
  2110  0655  1068               	bcf	_RS/(0+8),_RS& (0+7)
  2111                           
  2112                           ;./lcd.h: 127:   PORTAbits.RA0 = 0;
  2113  0656  1005               	bcf	5,0	;volatile
  2114                           
  2115                           ;./lcd.h: 128:   PORTAbits.RA1 = 0;
  2116  0657  1085               	bcf	5,1	;volatile
  2117                           
  2118                           ;./lcd.h: 129:   PORTAbits.RA2 = 0;
  2119  0658  1105               	bcf	5,2	;volatile
  2120                           
  2121                           ;./lcd.h: 134:   PORTBbits.RB4 = 0;
  2122  0659  1206               	bcf	6,4	;volatile
  2123                           
  2124                           ;./lcd.h: 135:   PORTBbits.RB5 = 0;
  2125  065A  1286               	bcf	6,5	;volatile
  2126                           
  2127                           ;./lcd.h: 136:   PORTBbits.RB6 = 0;
  2128  065B  1306               	bcf	6,6	;volatile
  2129                           
  2130                           ;./lcd.h: 137:   PORTBbits.RB7 = 0;
  2131  065C  1386               	bcf	6,7	;volatile
  2132                           
  2133                           ;./lcd.h: 138:   TRISAbits.TRISA0 = 0;
  2134  065D  1683               	bsf	3,5	;RP0=1, select bank1
  2135  065E  1303               	bcf	3,6	;RP1=0, select bank1
  2136  065F  1005               	bcf	5,0	;volatile
  2137                           
  2138                           ;./lcd.h: 139:   TRISAbits.TRISA1 = 0;
  2139  0660  1085               	bcf	5,1	;volatile
  2140                           
  2141                           ;./lcd.h: 140:   TRISAbits.TRISA2 = 0;
  2142  0661  1105               	bcf	5,2	;volatile
  2143                           
  2144                           ;./lcd.h: 145:   TRISBbits.TRISB4 = 0;
  2145  0662  1206               	bcf	6,4	;volatile
  2146                           
  2147                           ;./lcd.h: 146:   TRISBbits.TRISB5 = 0;
  2148  0663  1286               	bcf	6,5	;volatile
  2149                           
  2150                           ;./lcd.h: 147:   TRISBbits.TRISB6 = 0;
  2151  0664  1306               	bcf	6,6	;volatile
  2152                           
  2153                           ;./lcd.h: 148:   TRISBbits.TRISB7 = 0;
  2154  0665  1386               	bcf	6,7	;volatile
  2155  0666                     l1457:
  2156                           
  2157                           ;./lcd.h: 149:   _delay((unsigned long)((40)*(32000000/4000.0)));
  2158  0666  3002               	movlw	2
  2159  0667  1283               	bcf	3,5	;RP0=0, select bank0
  2160  0668  1303               	bcf	3,6	;RP1=0, select bank0
  2161  0669  00D3               	movwf	??_LCD_Begin+2
  2162  066A  30A0               	movlw	160
  2163  066B  00D2               	movwf	??_LCD_Begin+1
  2164  066C  3092               	movlw	146
  2165  066D  00D1               	movwf	??_LCD_Begin
  2166  066E                     u1297:
  2167  066E  0BD1               	decfsz	??_LCD_Begin,f
  2168  066F  2E6E               	goto	u1297
  2169  0670  0BD2               	decfsz	??_LCD_Begin+1,f
  2170  0671  2E6E               	goto	u1297
  2171  0672  0BD3               	decfsz	??_LCD_Begin+2,f
  2172  0673  2E6E               	goto	u1297
  2173  0674                     l1459:
  2174                           
  2175                           ;./lcd.h: 150:   LCD_Cmd(3);
  2176  0674  3003               	movlw	3
  2177  0675  118A  2461  118A   	fcall	_LCD_Cmd
  2178  0678                     l1461:
  2179                           
  2180                           ;./lcd.h: 151:   _delay((unsigned long)((5)*(32000000/4000.0)));
  2181  0678  3034               	movlw	52
  2182  0679  1283               	bcf	3,5	;RP0=0, select bank0
  2183  067A  1303               	bcf	3,6	;RP1=0, select bank0
  2184  067B  00D2               	movwf	??_LCD_Begin+1
  2185  067C  30F1               	movlw	241
  2186  067D  00D1               	movwf	??_LCD_Begin
  2187  067E                     u1307:
  2188  067E  0BD1               	decfsz	??_LCD_Begin,f
  2189  067F  2E7E               	goto	u1307
  2190  0680  0BD2               	decfsz	??_LCD_Begin+1,f
  2191  0681  2E7E               	goto	u1307
  2192  0682  0000               	nop
  2193                           
  2194                           ;./lcd.h: 152:   LCD_Cmd(3);
  2195  0683  3003               	movlw	3
  2196  0684  118A  2461  118A   	fcall	_LCD_Cmd
  2197  0687                     l1463:
  2198                           
  2199                           ;./lcd.h: 153:   _delay((unsigned long)((5)*(32000000/4000.0)));
  2200  0687  3034               	movlw	52
  2201  0688  1283               	bcf	3,5	;RP0=0, select bank0
  2202  0689  1303               	bcf	3,6	;RP1=0, select bank0
  2203  068A  00D2               	movwf	??_LCD_Begin+1
  2204  068B  30F1               	movlw	241
  2205  068C  00D1               	movwf	??_LCD_Begin
  2206  068D                     u1317:
  2207  068D  0BD1               	decfsz	??_LCD_Begin,f
  2208  068E  2E8D               	goto	u1317
  2209  068F  0BD2               	decfsz	??_LCD_Begin+1,f
  2210  0690  2E8D               	goto	u1317
  2211  0691  0000               	nop
  2212  0692                     l1465:
  2213                           
  2214                           ;./lcd.h: 154:   LCD_Cmd(3);
  2215  0692  3003               	movlw	3
  2216  0693  118A  2461  118A   	fcall	_LCD_Cmd
  2217                           
  2218                           ;./lcd.h: 155:   _delay((unsigned long)((5)*(32000000/4000.0)));
  2219  0696  3034               	movlw	52
  2220  0697  1283               	bcf	3,5	;RP0=0, select bank0
  2221  0698  1303               	bcf	3,6	;RP1=0, select bank0
  2222  0699  00D2               	movwf	??_LCD_Begin+1
  2223  069A  30F1               	movlw	241
  2224  069B  00D1               	movwf	??_LCD_Begin
  2225  069C                     u1327:
  2226  069C  0BD1               	decfsz	??_LCD_Begin,f
  2227  069D  2E9C               	goto	u1327
  2228  069E  0BD2               	decfsz	??_LCD_Begin+1,f
  2229  069F  2E9C               	goto	u1327
  2230  06A0  0000               	nop
  2231  06A1                     l1467:
  2232                           
  2233                           ;./lcd.h: 156:   LCD_Cmd(0x02);
  2234  06A1  3002               	movlw	2
  2235  06A2  118A  2461  118A   	fcall	_LCD_Cmd
  2236  06A5                     l1469:
  2237                           
  2238                           ;./lcd.h: 157:   _delay((unsigned long)((5)*(32000000/4000.0)));
  2239  06A5  3034               	movlw	52
  2240  06A6  1283               	bcf	3,5	;RP0=0, select bank0
  2241  06A7  1303               	bcf	3,6	;RP1=0, select bank0
  2242  06A8  00D2               	movwf	??_LCD_Begin+1
  2243  06A9  30F1               	movlw	241
  2244  06AA  00D1               	movwf	??_LCD_Begin
  2245  06AB                     u1337:
  2246  06AB  0BD1               	decfsz	??_LCD_Begin,f
  2247  06AC  2EAB               	goto	u1337
  2248  06AD  0BD2               	decfsz	??_LCD_Begin+1,f
  2249  06AE  2EAB               	goto	u1337
  2250  06AF  0000               	nop
  2251                           
  2252                           ;./lcd.h: 158:   LCD_Cmd(0x20 | (2 << 2));
  2253  06B0  3028               	movlw	40
  2254  06B1  118A  2461  118A   	fcall	_LCD_Cmd
  2255  06B4                     l1471:
  2256                           
  2257                           ;./lcd.h: 159:   _delay((unsigned long)((50)*(32000000/4000.0)));
  2258  06B4  3003               	movlw	3
  2259  06B5  1283               	bcf	3,5	;RP0=0, select bank0
  2260  06B6  1303               	bcf	3,6	;RP1=0, select bank0
  2261  06B7  00D3               	movwf	??_LCD_Begin+2
  2262  06B8  3008               	movlw	8
  2263  06B9  00D2               	movwf	??_LCD_Begin+1
  2264  06BA  3076               	movlw	118
  2265  06BB  00D1               	movwf	??_LCD_Begin
  2266  06BC                     u1347:
  2267  06BC  0BD1               	decfsz	??_LCD_Begin,f
  2268  06BD  2EBC               	goto	u1347
  2269  06BE  0BD2               	decfsz	??_LCD_Begin+1,f
  2270  06BF  2EBC               	goto	u1347
  2271  06C0  0BD3               	decfsz	??_LCD_Begin+2,f
  2272  06C1  2EBC               	goto	u1347
  2273  06C2  2EC3               	nop2
  2274  06C3                     l1473:
  2275                           
  2276                           ;./lcd.h: 160:   LCD_Cmd(0x0C);
  2277  06C3  300C               	movlw	12
  2278  06C4  118A  2461  118A   	fcall	_LCD_Cmd
  2279                           
  2280                           ;./lcd.h: 161:   _delay((unsigned long)((50)*(32000000/4000.0)));
  2281  06C7  3003               	movlw	3
  2282  06C8  1283               	bcf	3,5	;RP0=0, select bank0
  2283  06C9  1303               	bcf	3,6	;RP1=0, select bank0
  2284  06CA  00D3               	movwf	??_LCD_Begin+2
  2285  06CB  3008               	movlw	8
  2286  06CC  00D2               	movwf	??_LCD_Begin+1
  2287  06CD  3076               	movlw	118
  2288  06CE  00D1               	movwf	??_LCD_Begin
  2289  06CF                     u1357:
  2290  06CF  0BD1               	decfsz	??_LCD_Begin,f
  2291  06D0  2ECF               	goto	u1357
  2292  06D1  0BD2               	decfsz	??_LCD_Begin+1,f
  2293  06D2  2ECF               	goto	u1357
  2294  06D3  0BD3               	decfsz	??_LCD_Begin+2,f
  2295  06D4  2ECF               	goto	u1357
  2296  06D5  2ED6               	nop2
  2297  06D6                     l1475:
  2298                           
  2299                           ;./lcd.h: 162:   LCD_Cmd(0x01);
  2300  06D6  3001               	movlw	1
  2301  06D7  118A  2461  118A   	fcall	_LCD_Cmd
  2302  06DA                     l1477:
  2303                           
  2304                           ;./lcd.h: 163:   _delay((unsigned long)((50)*(32000000/4000.0)));
  2305  06DA  3003               	movlw	3
  2306  06DB  1283               	bcf	3,5	;RP0=0, select bank0
  2307  06DC  1303               	bcf	3,6	;RP1=0, select bank0
  2308  06DD  00D3               	movwf	??_LCD_Begin+2
  2309  06DE  3008               	movlw	8
  2310  06DF  00D2               	movwf	??_LCD_Begin+1
  2311  06E0  3076               	movlw	118
  2312  06E1  00D1               	movwf	??_LCD_Begin
  2313  06E2                     u1367:
  2314  06E2  0BD1               	decfsz	??_LCD_Begin,f
  2315  06E3  2EE2               	goto	u1367
  2316  06E4  0BD2               	decfsz	??_LCD_Begin+1,f
  2317  06E5  2EE2               	goto	u1367
  2318  06E6  0BD3               	decfsz	??_LCD_Begin+2,f
  2319  06E7  2EE2               	goto	u1367
  2320  06E8  2EE9               	nop2
  2321                           
  2322                           ;./lcd.h: 164:   LCD_Cmd(0x04 | 0x02);
  2323  06E9  3006               	movlw	6
  2324  06EA  118A  2461  118A   	fcall	_LCD_Cmd
  2325  06ED                     l1479:
  2326                           
  2327                           ;./lcd.h: 165:   _delay((unsigned long)((50)*(32000000/4000.0)));
  2328  06ED  3003               	movlw	3
  2329  06EE  1283               	bcf	3,5	;RP0=0, select bank0
  2330  06EF  1303               	bcf	3,6	;RP1=0, select bank0
  2331  06F0  00D3               	movwf	??_LCD_Begin+2
  2332  06F1  3008               	movlw	8
  2333  06F2  00D2               	movwf	??_LCD_Begin+1
  2334  06F3  3076               	movlw	118
  2335  06F4  00D1               	movwf	??_LCD_Begin
  2336  06F5                     u1377:
  2337  06F5  0BD1               	decfsz	??_LCD_Begin,f
  2338  06F6  2EF5               	goto	u1377
  2339  06F7  0BD2               	decfsz	??_LCD_Begin+1,f
  2340  06F8  2EF5               	goto	u1377
  2341  06F9  0BD3               	decfsz	??_LCD_Begin+2,f
  2342  06FA  2EF5               	goto	u1377
  2343  06FB  2EFC               	nop2
  2344  06FC                     l1481:
  2345                           
  2346                           ;./lcd.h: 166:   LCD_Cmd(0x0F);
  2347  06FC  300F               	movlw	15
  2348  06FD  118A  2461  118A   	fcall	_LCD_Cmd
  2349                           
  2350                           ;./lcd.h: 167:   _delay((unsigned long)((50)*(32000000/4000.0)));
  2351  0700  3003               	movlw	3
  2352  0701  1283               	bcf	3,5	;RP0=0, select bank0
  2353  0702  1303               	bcf	3,6	;RP1=0, select bank0
  2354  0703  00D3               	movwf	??_LCD_Begin+2
  2355  0704  3008               	movlw	8
  2356  0705  00D2               	movwf	??_LCD_Begin+1
  2357  0706  3076               	movlw	118
  2358  0707  00D1               	movwf	??_LCD_Begin
  2359  0708                     u1387:
  2360  0708  0BD1               	decfsz	??_LCD_Begin,f
  2361  0709  2F08               	goto	u1387
  2362  070A  0BD2               	decfsz	??_LCD_Begin+1,f
  2363  070B  2F08               	goto	u1387
  2364  070C  0BD3               	decfsz	??_LCD_Begin+2,f
  2365  070D  2F08               	goto	u1387
  2366  070E  2F0F               	nop2
  2367  070F                     l110:
  2368  070F  0008               	return
  2369  0710                     __end_of_LCD_Begin:
  2370                           
  2371                           	psect	text10
  2372  0461                     __ptext10:	
  2373 ;; *************** function _LCD_Cmd *****************
  2374 ;; Defined at:
  2375 ;;		line 78 in file "./lcd.h"
  2376 ;; Parameters:    Size  Location     Type
  2377 ;;  Command         1    wreg     unsigned char 
  2378 ;; Auto vars:     Size  Location     Type
  2379 ;;  Command         1    5[BANK0 ] unsigned char 
  2380 ;; Return value:  Size  Location     Type
  2381 ;;                  1    wreg      void 
  2382 ;; Registers used:
  2383 ;;		wreg, status,2, status,0, pclath, cstack
  2384 ;; Tracked objects:
  2385 ;;		On entry : 0/0
  2386 ;;		On exit  : 0/0
  2387 ;;		Unchanged: 0/0
  2388 ;; Data sizes:     COMMON   BANK0   BANK1
  2389 ;;      Params:         0       0       0
  2390 ;;      Locals:         0       1       0
  2391 ;;      Temps:          0       2       0
  2392 ;;      Totals:         0       3       0
  2393 ;;Total ram usage:        3 bytes
  2394 ;; Hardware stack levels used: 1
  2395 ;; Hardware stack levels required when called: 1
  2396 ;; This function calls:
  2397 ;;		_LCD_Write_Nibble
  2398 ;; This function is called by:
  2399 ;;		_LCD_Goto
  2400 ;;		_LCD_Begin
  2401 ;;		_main
  2402 ;;		_inicio_presentacion
  2403 ;; This function uses a non-reentrant model
  2404 ;;
  2405                           
  2406                           
  2407                           ;psect for function _LCD_Cmd
  2408  0461                     _LCD_Cmd:
  2409                           
  2410                           ;incstack = 0
  2411                           ; Regs used in _LCD_Cmd: [wreg+status,2+status,0+pclath+cstack]
  2412                           ;LCD_Cmd@Command stored from wreg
  2413  0461  1283               	bcf	3,5	;RP0=0, select bank0
  2414  0462  1303               	bcf	3,6	;RP1=0, select bank0
  2415  0463  00D0               	movwf	LCD_Cmd@Command
  2416  0464                     l1295:
  2417                           
  2418                           ;./lcd.h: 78: void LCD_Cmd(uint8_t Command);./lcd.h: 79: {;./lcd.h: 80:   RS = 0;
  2419  0464  1068               	bcf	_RS/(0+8),_RS& (0+7)
  2420  0465                     l1297:
  2421                           
  2422                           ;./lcd.h: 81:   LCD_Write_Nibble(Command >> 4);
  2423  0465  0850               	movf	LCD_Cmd@Command,w
  2424  0466  00CE               	movwf	??_LCD_Cmd
  2425  0467  3004               	movlw	4
  2426  0468                     u665:
  2427  0468  1003               	clrc
  2428  0469  0CCE               	rrf	??_LCD_Cmd,f
  2429  046A  3EFF               	addlw	-1
  2430  046B  1D03               	skipz
  2431  046C  2C68               	goto	u665
  2432  046D  084E               	movf	??_LCD_Cmd,w
  2433  046E  118A  24FE  118A   	fcall	_LCD_Write_Nibble
  2434                           
  2435                           ;./lcd.h: 82:   LCD_Write_Nibble(Command);
  2436  0471  1283               	bcf	3,5	;RP0=0, select bank0
  2437  0472  1303               	bcf	3,6	;RP1=0, select bank0
  2438  0473  0850               	movf	LCD_Cmd@Command,w
  2439  0474  118A  24FE  118A   	fcall	_LCD_Write_Nibble
  2440  0477                     l1299:
  2441                           
  2442                           ;./lcd.h: 83:   if((Command == 0x01) || (Command == 0x02))
  2443  0477  1283               	bcf	3,5	;RP0=0, select bank0
  2444  0478  1303               	bcf	3,6	;RP1=0, select bank0
  2445  0479  0350               	decf	LCD_Cmd@Command,w
  2446  047A  1903               	btfsc	3,2
  2447  047B  2C7D               	goto	u671
  2448  047C  2C7E               	goto	u670
  2449  047D                     u671:
  2450  047D  2C84               	goto	l1303
  2451  047E                     u670:
  2452  047E                     l1301:
  2453  047E  3002               	movlw	2
  2454  047F  0650               	xorwf	LCD_Cmd@Command,w
  2455  0480  1D03               	btfss	3,2
  2456  0481  2C83               	goto	u681
  2457  0482  2C84               	goto	u680
  2458  0483                     u681:
  2459  0483  2C8E               	goto	l89
  2460  0484                     u680:
  2461  0484                     l1303:
  2462                           
  2463                           ;./lcd.h: 84:     _delay((unsigned long)((2)*(32000000/4000.0)));
  2464  0484  3015               	movlw	21
  2465  0485  1283               	bcf	3,5	;RP0=0, select bank0
  2466  0486  1303               	bcf	3,6	;RP1=0, select bank0
  2467  0487  00CF               	movwf	??_LCD_Cmd+1
  2468  0488  30C6               	movlw	198
  2469  0489  00CE               	movwf	??_LCD_Cmd
  2470  048A                     u1397:
  2471  048A  0BCE               	decfsz	??_LCD_Cmd,f
  2472  048B  2C8A               	goto	u1397
  2473  048C  0BCF               	decfsz	??_LCD_Cmd+1,f
  2474  048D  2C8A               	goto	u1397
  2475  048E                     l89:
  2476  048E  0008               	return
  2477  048F                     __end_of_LCD_Cmd:
  2478                           
  2479                           	psect	text11
  2480  04FE                     __ptext11:	
  2481 ;; *************** function _LCD_Write_Nibble *****************
  2482 ;; Defined at:
  2483 ;;		line 61 in file "./lcd.h"
  2484 ;; Parameters:    Size  Location     Type
  2485 ;;  n               1    wreg     unsigned char 
  2486 ;; Auto vars:     Size  Location     Type
  2487 ;;  n               1    2[BANK0 ] unsigned char 
  2488 ;; Return value:  Size  Location     Type
  2489 ;;                  1    wreg      void 
  2490 ;; Registers used:
  2491 ;;		wreg, status,2, status,0
  2492 ;; Tracked objects:
  2493 ;;		On entry : 0/0
  2494 ;;		On exit  : 0/0
  2495 ;;		Unchanged: 0/0
  2496 ;; Data sizes:     COMMON   BANK0   BANK1
  2497 ;;      Params:         0       0       0
  2498 ;;      Locals:         0       1       0
  2499 ;;      Temps:          0       2       0
  2500 ;;      Totals:         0       3       0
  2501 ;;Total ram usage:        3 bytes
  2502 ;; Hardware stack levels used: 1
  2503 ;; This function calls:
  2504 ;;		Nothing
  2505 ;; This function is called by:
  2506 ;;		_LCD_Cmd
  2507 ;;		_LCD_PutC
  2508 ;;		_LCD_Print
  2509 ;; This function uses a non-reentrant model
  2510 ;;
  2511                           
  2512                           
  2513                           ;psect for function _LCD_Write_Nibble
  2514  04FE                     _LCD_Write_Nibble:
  2515                           
  2516                           ;incstack = 0
  2517                           ; Regs used in _LCD_Write_Nibble: [wreg+status,2+status,0]
  2518                           ;LCD_Write_Nibble@n stored from wreg
  2519  04FE  1283               	bcf	3,5	;RP0=0, select bank0
  2520  04FF  1303               	bcf	3,6	;RP1=0, select bank0
  2521  0500  00CD               	movwf	LCD_Write_Nibble@n
  2522  0501                     l1279:
  2523                           
  2524                           ;./lcd.h: 61: void LCD_Write_Nibble(uint8_t n);./lcd.h: 62: {;./lcd.h: 63:   PORTAbits.R
      +                          A0 = RS;
  2525  0501  1868               	btfsc	_RS/(0+8),_RS& (0+7)
  2526  0502  2D04               	goto	u621
  2527  0503  2D08               	goto	u620
  2528  0504                     u621:
  2529  0504  1283               	bcf	3,5	;RP0=0, select bank0
  2530  0505  1303               	bcf	3,6	;RP1=0, select bank0
  2531  0506  1405               	bsf	5,0	;volatile
  2532  0507  2D0B               	goto	u634
  2533  0508                     u620:
  2534  0508  1283               	bcf	3,5	;RP0=0, select bank0
  2535  0509  1303               	bcf	3,6	;RP1=0, select bank0
  2536  050A  1005               	bcf	5,0	;volatile
  2537  050B                     u634:
  2538  050B                     l1281:
  2539                           
  2540                           ;./lcd.h: 64:   PORTBbits.RB4 = n & 0x01;
  2541  050B  084D               	movf	LCD_Write_Nibble@n,w
  2542  050C  3901               	andlw	1
  2543  050D  00CB               	movwf	??_LCD_Write_Nibble
  2544  050E  0ECB               	swapf	??_LCD_Write_Nibble,f
  2545  050F  0806               	movf	6,w	;volatile
  2546  0510  064B               	xorwf	??_LCD_Write_Nibble,w
  2547  0511  39EF               	andlw	-17
  2548  0512  064B               	xorwf	??_LCD_Write_Nibble,w
  2549  0513  0086               	movwf	6	;volatile
  2550                           
  2551                           ;./lcd.h: 65:   PORTBbits.RB5 = (n >> 1) & 0x01;
  2552  0514  084D               	movf	LCD_Write_Nibble@n,w
  2553  0515  00CB               	movwf	??_LCD_Write_Nibble
  2554  0516  1003               	clrc
  2555  0517  0C4B               	rrf	??_LCD_Write_Nibble,w
  2556  0518  3901               	andlw	1
  2557  0519  00CC               	movwf	??_LCD_Write_Nibble+1
  2558  051A  0ECC               	swapf	??_LCD_Write_Nibble+1,f
  2559  051B  0DCC               	rlf	??_LCD_Write_Nibble+1,f
  2560  051C  0806               	movf	6,w	;volatile
  2561  051D  064C               	xorwf	??_LCD_Write_Nibble+1,w
  2562  051E  39DF               	andlw	-33
  2563  051F  064C               	xorwf	??_LCD_Write_Nibble+1,w
  2564  0520  0086               	movwf	6	;volatile
  2565                           
  2566                           ;./lcd.h: 66:   PORTBbits.RB6 = (n >> 2) & 0x01;
  2567  0521  084D               	movf	LCD_Write_Nibble@n,w
  2568  0522  00CB               	movwf	??_LCD_Write_Nibble
  2569  0523  3002               	movlw	2
  2570  0524                     u645:
  2571  0524  1003               	clrc
  2572  0525  0CCB               	rrf	??_LCD_Write_Nibble,f
  2573  0526  3EFF               	addlw	-1
  2574  0527  1D03               	skipz
  2575  0528  2D24               	goto	u645
  2576  0529  084B               	movf	??_LCD_Write_Nibble,w
  2577  052A  3901               	andlw	1
  2578  052B  00CC               	movwf	??_LCD_Write_Nibble+1
  2579  052C  0ECC               	swapf	??_LCD_Write_Nibble+1,f
  2580  052D  0DCC               	rlf	??_LCD_Write_Nibble+1,f
  2581  052E  0DCC               	rlf	??_LCD_Write_Nibble+1,f
  2582  052F  0806               	movf	6,w	;volatile
  2583  0530  064C               	xorwf	??_LCD_Write_Nibble+1,w
  2584  0531  39BF               	andlw	-65
  2585  0532  064C               	xorwf	??_LCD_Write_Nibble+1,w
  2586  0533  0086               	movwf	6	;volatile
  2587                           
  2588                           ;./lcd.h: 67:   PORTBbits.RB7 = (n >> 3) & 0x01;
  2589  0534  084D               	movf	LCD_Write_Nibble@n,w
  2590  0535  00CB               	movwf	??_LCD_Write_Nibble
  2591  0536  3003               	movlw	3
  2592  0537                     u655:
  2593  0537  1003               	clrc
  2594  0538  0CCB               	rrf	??_LCD_Write_Nibble,f
  2595  0539  3EFF               	addlw	-1
  2596  053A  1D03               	skipz
  2597  053B  2D37               	goto	u655
  2598  053C  084B               	movf	??_LCD_Write_Nibble,w
  2599  053D  3901               	andlw	1
  2600  053E  00CC               	movwf	??_LCD_Write_Nibble+1
  2601  053F  0CCC               	rrf	??_LCD_Write_Nibble+1,f
  2602  0540  0CCC               	rrf	??_LCD_Write_Nibble+1,f
  2603  0541  0806               	movf	6,w	;volatile
  2604  0542  064C               	xorwf	??_LCD_Write_Nibble+1,w
  2605  0543  397F               	andlw	-129
  2606  0544  064C               	xorwf	??_LCD_Write_Nibble+1,w
  2607  0545  0086               	movwf	6	;volatile
  2608  0546                     l1283:
  2609                           
  2610                           ;./lcd.h: 70:   PORTAbits.RA2 = 0;
  2611  0546  1105               	bcf	5,2	;volatile
  2612  0547                     l1285:
  2613                           
  2614                           ;./lcd.h: 71:   _delay((unsigned long)((1)*(32000000/4000000.0)));
  2615  0547  2D48               	nop2	;2 cycle nop
  2616  0548  2D49               	nop2	;2 cycle nop
  2617  0549  2D4A               	nop2	;2 cycle nop
  2618  054A  2D4B               	nop2	;2 cycle nop
  2619  054B                     l1287:
  2620                           
  2621                           ;./lcd.h: 72:   PORTAbits.RA2 = 1;
  2622  054B  1283               	bcf	3,5	;RP0=0, select bank0
  2623  054C  1303               	bcf	3,6	;RP1=0, select bank0
  2624  054D  1505               	bsf	5,2	;volatile
  2625  054E                     l1289:
  2626                           
  2627                           ;./lcd.h: 73:   _delay((unsigned long)((1)*(32000000/4000000.0)));
  2628  054E  2D4F               	nop2	;2 cycle nop
  2629  054F  2D50               	nop2	;2 cycle nop
  2630  0550  2D51               	nop2	;2 cycle nop
  2631  0551  2D52               	nop2	;2 cycle nop
  2632  0552                     l1291:
  2633                           
  2634                           ;./lcd.h: 74:   PORTAbits.RA2 = 0;
  2635  0552  1283               	bcf	3,5	;RP0=0, select bank0
  2636  0553  1303               	bcf	3,6	;RP1=0, select bank0
  2637  0554  1105               	bcf	5,2	;volatile
  2638  0555                     l1293:
  2639                           
  2640                           ;./lcd.h: 75:   _delay((unsigned long)((100)*(32000000/4000000.0)));
  2641  0555  309F               	movlw	159
  2642  0556  1283               	bcf	3,5	;RP0=0, select bank0
  2643  0557  1303               	bcf	3,6	;RP1=0, select bank0
  2644  0558  00CB               	movwf	??_LCD_Write_Nibble
  2645  0559                     u1407:
  2646  0559  2D5A               	nop2
  2647  055A  0BCB               	decfsz	??_LCD_Write_Nibble,f
  2648  055B  2D59               	goto	u1407
  2649  055C  2D5D               	nop2
  2650  055D  0000               	nop
  2651  055E                     l83:
  2652  055E  0008               	return
  2653  055F                     __end_of_LCD_Write_Nibble:
  2654  007E                     btemp	set	126	;btemp
  2655  007E                     wtemp0	set	126
  2656                           
  2657                           	psect	config
  2658                           
  2659                           ;Config register CONFIG @ 0x2007
  2660                           ;	Oscillator Selection bits
  2661                           ;	FOSC = XT, XT oscillator
  2662                           ;	Watchdog Timer Enable bit
  2663                           ;	WDTE = OFF, WDT disabled
  2664                           ;	Power-up Timer Enable bit
  2665                           ;	PWRTE = OFF, PWRT disabled
  2666                           ;	FLASH Program Memory Code Protection bits
  2667                           ;	CP = OFF, Code protection off
  2668                           ;	Brown-out Reset Enable bit
  2669                           ;	BOREN = OFF, BOR disabled
  2670                           ;	Low Voltage In-Circuit Serial Programming Enable bit
  2671                           ;	LVP = OFF, RB3 is digital I/O, HV on MCLR must be used for programming
  2672                           ;	Data EE Memory Code Protection
  2673                           ;	CPD = OFF, Code Protection off
  2674                           ;	FLASH Program Memory Write Enable
  2675                           ;	WRT = OFF, Unprotected program memory may not be written to by EECON control
  2676                           ;	In-Circuit Debugger Mode bit
  2677                           ;	DEBUG = 0x1, unprogrammed default
  2678  2007                     	org	8199
  2679  2007  3D39               	dw	15673

Data Sizes:
    Strings     53
    Constant    0
    Data        43
    BSS         8
    Persistent  0
    Stack       0

Auto Spaces:
    Space          Size  Autos    Used
    COMMON            0      0       0
    BANK0            94     21      73
    BANK1            94      0       0

Pointer List with Targets:

    LCD_Print@LCD_Str	PTR unsigned char  size(2) Largest target is 41
		 -> M(BANK0[41]), STR_11(CODE[4]), STR_10(CODE[5]), STR_9(CODE[3]), 
		 -> STR_8(CODE[6]), STR_7(CODE[6]), STR_6(CODE[6]), STR_5(CODE[5]), 
		 -> STR_4(CODE[6]), STR_3(CODE[6]), STR_2(CODE[6]), STR_1(CODE[3]), 


Critical Paths under _main in COMMON

    None.

Critical Paths under _main in BANK0

    _main->_inicio_presentacion
    _keypad_getkey->_keypad_readkey
    _inicio_presentacion->_LCD_Goto
    _LCD_Print->_LCD_Write_Nibble
    _LCD_Goto->_LCD_Cmd
    _LCD_PutC->_LCD_Write_Nibble
    _LCD_Begin->_LCD_Cmd
    _LCD_Cmd->_LCD_Write_Nibble

Critical Paths under _main in BANK1

    None.

Call Graph Tables:

 ---------------------------------------------------------------------------------
 (Depth) Function   	        Calls       Base Space   Used Autos Params    Refs
 ---------------------------------------------------------------------------------
 (0) _main                                                 6     6      0    4207
                                             15 BANK0      6     6      0
                          _LCD_Begin
                            _LCD_Cmd
                           _LCD_Goto
                          _LCD_Print
                           _LCD_PutC
                    _iniciar_puertos
                _inicio_presentacion
                      _keypad_getkey
                _set_configuraciones
 ---------------------------------------------------------------------------------
 (1) _set_configuraciones                                  0     0      0       0
 ---------------------------------------------------------------------------------
 (1) _keypad_getkey                                        2     2      0      46
                                              1 BANK0      2     2      0
                     _keypad_readkey
 ---------------------------------------------------------------------------------
 (2) _keypad_readkey                                       1     1      0       0
                                              0 BANK0      1     1      0
 ---------------------------------------------------------------------------------
 (1) _inicio_presentacion                                  5     5      0    1870
                                             10 BANK0      5     5      0
                            _LCD_Cmd
                           _LCD_Goto
                          _LCD_Print
 ---------------------------------------------------------------------------------
 (2) _LCD_Print                                            4     2      2    1134
                                              3 BANK0      4     2      2
                   _LCD_Write_Nibble
 ---------------------------------------------------------------------------------
 (2) _LCD_Goto                                             4     3      1     514
                                              6 BANK0      4     3      1
                            _LCD_Cmd
 ---------------------------------------------------------------------------------
 (1) _iniciar_puertos                                      0     0      0       0
 ---------------------------------------------------------------------------------
 (1) _LCD_PutC                                             2     2      0     132
                                              3 BANK0      2     2      0
                   _LCD_Write_Nibble
 ---------------------------------------------------------------------------------
 (1) _LCD_Begin                                            3     3      0     176
                                              6 BANK0      3     3      0
                            _LCD_Cmd
 ---------------------------------------------------------------------------------
 (3) _LCD_Cmd                                              3     3      0     176
                                              3 BANK0      3     3      0
                   _LCD_Write_Nibble
 ---------------------------------------------------------------------------------
 (3) _LCD_Write_Nibble                                     3     3      0      88
                                              0 BANK0      3     3      0
 ---------------------------------------------------------------------------------
 Estimated maximum stack depth 3
 ---------------------------------------------------------------------------------

 Call Graph Graphs:

 _main (ROOT)
   _LCD_Begin
     _LCD_Cmd
       _LCD_Write_Nibble
   _LCD_Cmd
   _LCD_Goto
     _LCD_Cmd
   _LCD_Print
     _LCD_Write_Nibble
   _LCD_PutC
     _LCD_Write_Nibble
   _iniciar_puertos
   _inicio_presentacion
     _LCD_Cmd
     _LCD_Goto
     _LCD_Print
   _keypad_getkey
     _keypad_readkey
   _set_configuraciones

 Address spaces:
Name               Size   Autos  Total    Cost      Usage
SFR3                 0      0       0       4        0.0%
BITSFR3              0      0       0       4        0.0%
SFR2                 0      0       0       5        0.0%
BITSFR2              0      0       0       5        0.0%
BANK1               5E      0       0       6        0.0%
BITBANK1            5E      0       0       5        0.0%
SFR1                 0      0       0       2        0.0%
BITSFR1              0      0       0       2        0.0%
BANK0               5E     15      49       4       77.7%
BITBANK0            5E      0       1       3        1.1%
SFR0                 0      0       0       1        0.0%
BITSFR0              0      0       0       1        0.0%
COMMON               0      0       0       1        0.0%
BITCOMMON            0      0       0       0        0.0%
CODE                 0      0       0       0        0.0%
DATA                 0      0      49       8        0.0%
ABS                  0      0      49       7        0.0%
NULL                 0      0       0       0        0.0%
STACK                0      0       0       2        0.0%
EEDATA              80      0       0       0        0.0%


Microchip Technology PIC Macro Assembler V2.32 build 20210201212658 
Symbol Table                                                                                   Mon May 17 21:36:16 2021

                           _M 0022                             _X 0020                             pc 0002  
                          l83 055E                            l89 048E                            _GO 00FA  
                          l98 04BE                            _RS 0340                            fsr 0004  
         _set_configuraciones 0410                           l101 03EE                           l110 070F  
                         l130 07E7                           l107 04FD                           l131 073B  
                         l140 079F                           l132 0741                           l221 05C5  
                         l141 07A5                           l142 07AB                           l134 077C  
                         l135 076A                           l216 03D7                           l136 0770  
                         l128 0747                           l145 07D4                           l137 0776  
                         l129 0735                           l146 07DA                           l170 0435  
                         l147 07E0                           l139 07B1                           l157 040F  
                         _ECO 0066                           _RA3 002B                           _RC0 0038  
                         _RA4 002C                           _RC1 0039                           _RA5 002D  
                         _RC2 003A                           _RC3 003B                           _RC4 003C  
                         u620 0508                           u700 04FD                           u621 0504  
                         u701 04FC                           u710 0723                           u711 0722  
                         u800 075C                           u720 0727                           u801 075B  
                         u721 0726                           u634 050B                           u810 0760  
                         u730 072B                           u811 075F                           u731 072A  
                         u900 0799                           u820 0764                           u740 072F  
                         u645 0524                           u901 0798                           u821 0763  
                         u741 072E                           u670 047E                           u910 079D  
                         u830 0768                           u750 0733                           u655 0537  
                         u671 047D                           u911 079C                           u831 0767  
                         u751 0732                           u680 0484                           u920 07A3  
                         u840 076E                           u760 0739                           u681 0483  
                         u665 0468                           u921 07A2                           u841 076D  
                         u761 0738                           u930 07A9                           u850 0774  
                         u770 073F                           u931 07A8                           u851 0773  
                         u771 073E                           u940 07AF                           u860 077A  
                         u780 0745                           u941 07AE                           u861 0779  
                         u781 0744                           u950 07C2                           u870 078D  
                         u790 0758                           u695 04D0                           u951 07C1  
                         u871 078C                           u791 0757                           u960 07C6  
                         u880 0791                           u961 07C5                           u881 0790  
                         u970 07CA                           u890 0795                           u971 07C9  
                         u891 0794                           u980 07CE                           u981 07CD  
                         u990 07D2                           u991 07D1              ?_iniciar_puertos 004B  
                         fsr0 0004                           indf 0000               __end_of_LCD_Cmd 048F  
                        l1301 047E                          l1303 0484                          l1311 049F  
                        l1313 04A5                          l1305 0492                          l1401 0799  
                        l1307 0493                          l1315 04AB                          l1331 04EE  
                        l1323 04BF                          l1411 07A9                          l1403 079D  
                        l1309 0499                          l1325 04C2                          l1421 07BC  
                        l1341 0727                          l1333 0710                          l1501 0422  
                        l1327 04C4                          l1431 07D2                          l1423 07C2  
                        l1415 07AF                          l1407 07A3                          l1351 0739  
                        l1343 072B                          l1335 0716                          l1511 042D  
                        l1503 0425                          l1281 050B                          l1329 04E8  
                        l1601 05BD                          l1425 07C6                          l1345 072F  
                        l1337 071D                          l1513 042E                          l1505 0428  
                        l1291 0552                          l1283 0546                          l1451 03DB  
                        l1443 07E4                          l1435 07D8                          l1427 07CA  
                        l1419 07B5                          l1371 0760                          l1363 074B  
                        l1355 073F                          l1347 0733                          l1339 0723  
                        l1515 0431                          l1507 0429                          l1293 0555  
                        l1285 0547                          l1461 0678                          l1453 03DC  
                        l1429 07CE                          l1373 0764                          l1365 0752  
                        l1509 042C                          l1621 05D0                          l1287 054B  
                        l1279 0501                          l1295 0464                          l1471 06B4  
                        l1463 0687                          l1455 0653                          l1439 07DE  
                        l1447 07E6                          l1391 0780                          l1383 0774  
                        l1375 0768                          l1367 0758                          l1359 0745  
                        l1631 05FA                          l1623 05D3                          l1615 05C6  
                        l1289 054E                          l1297 0465                          l1481 06FC  
                        l1473 06C3                          l1465 0692                          l1457 0666  
                        l1561 03CE                          l1553 03C3                          l1393 0787  
                        l1369 075C                          l1641 0621                          l1633 0609  
                        l1625 05D6                          l1617 05CA                          l1299 0477  
                        l1475 06D6                          l1467 06A1                          l1459 0674  
                        l1571 03D3                          l1563 03CF                          l1555 03C9  
                        l1395 078D                          l1387 077A                          l1379 076E  
                        l1491 040C                          l1483 03EF                          l1643 062B  
                        l1635 0611                          l1651 063F                          l1627 05E4  
                        l1619 05CD                          l1477 06DA                          l1469 06A5  
                        l1573 03D4                          l1565 03D0                          l1557 03CC  
                        l1581 0570                          l1397 0791                          l1485 03F6  
                        l1653 0643                          l1637 0617                          l1645 0632  
                        l1629 05EC                          l1479 06ED                          l1575 03D5  
                        l1567 03D1                          l1559 03CD                          l1591 0587  
                        l1583 057F                          l1399 0795                          l1487 03FE  
                        l1495 0410                          l1655 0647                          l1647 0638  
                        l1639 061D                          l1569 03D2                          l1593 0595  
                        l1577 055F                          l1489 0404                          l1497 0418  
                        l1649 063A                          l1595 059D                          l1579 0567  
                        l1499 041F                          l1597 05AA                          l1589 0583  
                        l1599 05B9                          l1689 04B3             ?_LCD_Write_Nibble 004B  
                        _ADIF 0066                          _ADON 00F8                          _CHS0 00FB  
                        _CHS1 00FC                          _CHS2 00FD                          STR_1 0044  
                        STR_2 0030                          STR_3 0018                          STR_4 002A  
                        STR_5 003B                          STR_6 0012                          STR_7 001E  
                        STR_8 0024                          u1000 07D8                          u1001 07D7  
                        u1010 07DE                          u1011 07DD                          u1020 07E4  
                        u1021 07E3                          u1040 0404                          u1041 0403  
                        u1050 040C                          u1035 03DF                          u1051 040B  
                        u1150 05AA                          u1151 05A9                          u1207 05DE  
                        u1160 0609                          u1161 0608                          u1217 05F4  
                        u1170 0617                          u1307 067E                          u1155 05A6  
                        u1227 071A                          u1171 0616                          u1180 061D  
                        u1317 068D                          u1237 074F                          u1181 061C  
                        u1165 0605                          u1190 0638                          u1407 0559  
                        u1327 069C                          u1247 0784                          u1191 0637  
                        u1337 06AB                          u1257 07B9                          u1347 06BC  
                        u1267 0578                          u1357 06CF                          u1277 058F  
                        u1367 06E2                          u1287 05B2                          u1377 06F5  
                        u1297 066E                          u1387 0708                          u1397 048A  
                        _TMR0 0001          ?_set_configuraciones 004B            ??_LCD_Write_Nibble 004B  
                        _main 05C6            __size_of_LCD_Begin 00BD                          btemp 007E  
          __size_of_LCD_Print 003F                          start 0000                   LCD_Goto@col 0054  
                 LCD_Goto@row 0051              __end_of_LCD_Goto 04BF              __end_of_LCD_PutC 03EF  
                       ?_main 004B                         _ADRES 0064                         STR_10 0036  
                       STR_11 0040                         _RCREG 001A                         _RCSTA 0018  
                       _SPBRG 0099                         _PORTA 0005                         _PORTB 0006  
                       _PORTC 0007                         _TXREG 0019                         _TXSTA 0098  
            ??_keypad_readkey 004B                         main@c 005F                         main@i 005D  
                       pclath 000A         ??_set_configuraciones 0000                         status 0003  
                       wtemp0 007E               __initialization 07E8                  __end_of_main 0653  
                      ??_main 005A             __end_of_LCD_Begin 0710                     ??_LCD_Cmd 004E  
           __end_of_LCD_Print 04FE                        _ADCON0 001F                        _ADCON1 009F  
                      _ADRESH 001E                        _ADRESL 009E                        _number 0060  
     __end_of__initialization 07FD                     ?_LCD_Goto 0051                     ?_LCD_PutC 004B  
      __size_of_keypad_getkey 0021  __size_of_inicio_presentacion 0067                __pcstackCOMMON 0000  
                __pidataBANK0 0436                LCD_Cmd@Command 0050                    __pbssBANK0 0060  
                  ??_LCD_Goto 0052                    ??_LCD_PutC 004E                    __pmaintext 05C6  
   __size_of_LCD_Write_Nibble 0061                 _keypad_getkey 03EF                       _LCD_Cmd 0461  
                  __stringtab 0002      __size_of_iniciar_puertos 0015              LCD_PutC@LCD_Char 004F  
                     __ptext1 0410                       __ptext2 03EF                       __ptext3 0710  
                     __ptext4 055F                       __ptext5 04BF                       __ptext6 048F  
                     __ptext7 03C3                       __ptext8 03D8                       __ptext9 0653  
              ?_keypad_getkey 004B   __end_of_set_configuraciones 0436                     _LCD_Begin 0653  
                   _LCD_Print 04BF          end_of_initialization 07FD                     _RCSTAbits 0018  
           LCD_Write_Nibble@n 004D                     _PORTAbits 0005                     _PORTBbits 0006  
                   _TRISAbits 0085                     _TRISBbits 0086                     _TRISCbits 0087  
                  ?_LCD_Begin 004B           _inicio_presentacion 055F                    ?_LCD_Print 004E  
                   _TXSTAbits 0098       __size_of_keypad_readkey 00D8             __size_of_LCD_Goto 0030  
           __size_of_LCD_PutC 0017             ??_iniciar_puertos 0000          ?_inicio_presentacion 004B  
            _LCD_Write_Nibble 04FE                    LCD_Print@i 0051               ??_keypad_getkey 004C  
               __pbitbssBANK0 0340           start_initialization 07E8          inicio_presentacion@i 0058  
       ??_inicio_presentacion 0055                    init_fetch0 03B2                   __pdataBANK0 0020  
                    ?_LCD_Cmd 004B                     ___latbits 0001                 __pcstackBANK0 004B  
                 ??_LCD_Begin 0051                   ??_LCD_Print 0050              LCD_Print@LCD_Str 004E  
                   __pstrings 0002                      _LCD_Goto 048F                      _LCD_PutC 03D8  
              _keypad_readkey 0710                      _PIR1bits 000C                   __stringbase 0011  
            __size_of_LCD_Cmd 002E      __end_of_LCD_Write_Nibble 055F               _iniciar_puertos 03C3  
      __end_of_keypad_readkey 07E8  __size_of_set_configuraciones 0026            __end_of__stringtab 0012  
                    __ptext10 0461                      __ptext11 04FE               ?_keypad_readkey 004B  
               __size_of_main 008D         __end_of_keypad_getkey 0410       __end_of_iniciar_puertos 03D8  
            keypad_getkey@key 004D                      init_ram0 03B6   __end_of_inicio_presentacion 05C6  
                   stringcode 000C                    _OPTION_REG 0081                      stringdir 000C  
                    stringtab 0002  
