Microchip MPLAB XC8 Compiler V2.32

Linker command line:

-W-3 --edf=C:\Program Files\Microchip\xc8\v2.32\pic\dat\en_msgs.txt -cn \
  -h+dist/default/production\P3.X.production.sym \
  --cmf=dist/default/production\P3.X.production.cmf -z -Q16F873A \
  -oC:\Users\chuch\AppData\Local\Temp\xcAsfmk.4 --defsym=__MPLAB_BUILD=1 \
  -Mdist/default/production/P3.X.production.map -E1 -ver=XC8 Compiler \
  --acfsm=1493 -ASTACK=07Ch-07Dh -pstack=STACK -ACODE=00h-07FFhx2 \
  -ASTRCODE=00h-0FFFh -ASTRING=00h-0FFhx16 -ACONST=00h-0FFhx16 \
  -AENTRY=00h-0FFhx16 -ABANK0=020h-07Dh -ABANK1=0A0h-0FDh \
  -ARAM=020h-07Dh,0A0h-0FDh -AABS1=020h-07Fh,0A0h-0FFh -ACOMMON=07Eh-07Fh \
  -ASFR0=00h-01Fh -ASFR1=080h-09Fh -ASFR2=0100h-017Dh -ASFR3=0180h-01FDh \
  -ACONFIG=02007h-02007h -DCONFIG=2 -AIDLOC=02000h-02003h -DIDLOC=2 \
  -AEEDATA=00h-07Fh/02100h -peeprom_data=EEDATA -DEEDATA=2 -DCODE=2 \
  -DSTRCODE=2 -DSTRING=2 -DCONST=2 -DENTRY=2 \
  -preset_vec=00h,intentry,init,end_init -ppowerup=CODE -pcinit=CODE \
  -pfunctab=ENTRY -k C:\Users\chuch\AppData\Local\Temp\xcAsfmk.o \
  dist/default/production\P3.X.production.o 

Object code version is 3.11

Machine type is 16F873A



                Name                               Link     Load   Length Selector   Space Scale
C:\Users\chuch\AppData\Local\Temp\xcAsfmk.o
                end_init                              0        0        2        0       0
                config                             2007     2007        1        0       4
dist/default/production\P3.X.production.o
                cinit                               7D9      7D9       27      FB2       0
                config                             2007     2007        1        0       4
                text17                              379      379       61      6F2       0
                text16                              17B      17B       2E      2F6       0
                text15                              570      570       BD      AE0       0
                text14                              11F      11F       17      23E       0
                text13                              10A      10A       15      214       0
                text12                              1A9      1A9       30      352       0
                text11                              20B      20B       35      416       0
                text10                              31C      31C       5D      638       0
                text9                               701      701       D8      E02       0
                text8                               136      136       21      26C       0
                text7                               446      446       7C      88C       0
                text6                               27C      27C       46      4F8       0
                text5                               240      240       3C      480       0
                text4                               3DA      3DA       6C      7B4       0
                text3                               157      157       24      2AE       0
                text2                               1D9      1D9       32      3B2       0
                text1                               4C2      4C2       AE      984       0
                maintext                            62D      62D       D4      C5A       0
                cstackBANK0                          20       20       51       20       1
                inittext                             F9       F9       11      1F2       0
                dataBANK1                            A0       A0       5A       A0       1
                bssBANK1                             FA       FA        4       A0       1
                dataBANK0                            71       71        6       20       1
                bssBANK0                             77       77        4       20       1
                bitbssBANK0                         3D8       7B        1       20       1     8
                strings                               2        2       18        4       0
                idataBANK1                          2C2      2C2       5A      584       0
                idataBANK0                           F3       F3        6      1E6       0

TOTAL           Name                               Link     Load   Length     Space
        CLASS   STACK          

        CLASS   CODE           
                end_init                              0        0        2         0
                cinit                               7D9      7D9       27         0
                text17                              379      379       61         0
                text16                              17B      17B       2E         0
                text15                              570      570       BD         0
                text14                              11F      11F       17         0
                text13                              10A      10A       15         0
                text12                              1A9      1A9       30         0
                text11                              20B      20B       35         0
                text10                              31C      31C       5D         0
                text9                               701      701       D8         0
                text8                               136      136       21         0
                text7                               446      446       7C         0
                text6                               27C      27C       46         0
                text5                               240      240       3C         0
                text4                               3DA      3DA       6C         0
                text3                               157      157       24         0
                text2                               1D9      1D9       32         0
                text1                               4C2      4C2       AE         0
                maintext                            62D      62D       D4         0
                inittext                             F9       F9       11         0
                idataBANK1                          2C2      2C2       5A         0
                idataBANK0                           F3       F3        6         0

        CLASS   STRCODE        

        CLASS   STRING         
                strings                               2        2       18         0

        CLASS   CONST          

        CLASS   ENTRY          

        CLASS   BANK0          
                cstackBANK0                          20       20       51         1
                dataBANK0                            71       71        6         1
                bssBANK0                             77       77        4         1
                bitbssBANK0                         3D8       7B        1         1

        CLASS   BANK1          
                dataBANK1                            A0       A0       5A         1
                bssBANK1                             FA       FA        4         1

        CLASS   RAM            

        CLASS   ABS1           
                abs_s1                               7E       7E        2         1

        CLASS   COMMON         

        CLASS   SFR0           

        CLASS   SFR1           

        CLASS   SFR2           

        CLASS   SFR3           

        CLASS   CONFIG         
                config                             2007     2007        1         4

        CLASS   IDLOC          

        CLASS   EEDATA         

        CLASS   BANK3          

        CLASS   BANK2          



SEGMENTS        Name                           Load    Length   Top    Selector   Space  Class     Delta

                reset_vec                      000000  000002  000002         0       0  CODE        2
                strings                        000002  000018  00001A         4       0  STRING      2
                cstackBANK0                    000020  00005C  00007C        20       1  BANK0       1
                dataBANK1                      0000A0  00005E  0000FE        A0       1  BANK1       1
                idataBANK0                     0000F3  000006  0000F9       1E6       0  CODE        2
                inittext                       0000F9  000011  00010A       1F2       0  CODE        2
                text13                         00010A  000015  00011F       214       0  CODE        2
                text14                         00011F  000017  000136       23E       0  CODE        2
                text8                          000136  000021  000157       26C       0  CODE        2
                text3                          000157  000024  00017B       2AE       0  CODE        2
                text16                         00017B  00002E  0001A9       2F6       0  CODE        2
                text12                         0001A9  000030  0001D9       352       0  CODE        2
                text2                          0001D9  000032  00020B       3B2       0  CODE        2
                text11                         00020B  000035  000240       416       0  CODE        2
                text5                          000240  00003C  00027C       480       0  CODE        2
                text6                          00027C  000046  0002C2       4F8       0  CODE        2
                idataBANK1                     0002C2  00005A  00031C       584       0  CODE        2
                text10                         00031C  00005D  000379       638       0  CODE        2
                text17                         000379  000061  0003DA       6F2       0  CODE        2
                text4                          0003DA  00006C  000446       7B4       0  CODE        2
                text7                          000446  00007C  0004C2       88C       0  CODE        2
                text1                          0004C2  0000AE  000570       984       0  CODE        2
                text15                         000570  0000BD  00062D       AE0       0  CODE        2
                maintext                       00062D  0000D4  000701       C5A       0  CODE        2
                text9                          000701  0000D8  0007D9       E02       0  CODE        2
                cinit                          0007D9  000027  000800       FB2       0  CODE        2


UNUSED ADDRESS RANGES

        Name                Unused          Largest block    Delta
        BANK0            007C-007D              2           1
        CODE             001A-00F2             D9           2
                         0800-0FFF            800
        CONST            001A-00F2             D9           2
                         0800-0FFF            100
        EEDATA           2100-217F             80           2
        ENTRY            001A-00F2             D9           2
                         0800-0FFF            100
        IDLOC            2000-2003              4           2
        RAM              007C-007D              2           1
        SFR0             0000-001F             20           1
        SFR1             0080-009F             20           1
        SFR2             0100-017D             7E           1
        SFR3             0180-01FD             7E           1
        STACK            007C-007D              2           1
        STRCODE          001A-00F2             D9           2
                         0800-0FFF            800
        STRING           001A-00F2             D9           2
                         0800-0FFF            100

                                  Symbol Table

?___fltol                           cstackBANK0  0020
?___lwdiv                           cstackBANK0  0020
?___lwmod                           cstackBANK0  0020
LCD_Cmd@Command                     cstackBANK0  0025
LCD_Goto@col                        cstackBANK0  0029
LCD_Goto@row                        cstackBANK0  0026
LCD_Print@LCD_Str                   cstackBANK0  0026
LCD_Print@i                         cstackBANK0  0025
LCD_PutC@LCD_Char                   cstackBANK0  0024
LCD_Write_Nibble@n                  cstackBANK0  0022
_ADCON1                             (abs)        009F
_LCD_Begin                          text15       0570
_LCD_Cmd                            text16       017B
_LCD_Goto                           text12       01A9
_LCD_Print                          text11       020B
_LCD_PutC                           text14       011F
_LCD_Write_Nibble                   text17       0379
_PORTA                              (abs)        0005
_PORTB                              (abs)        0006
_PORTBbits                          (abs)        0006
_PORTC                              (abs)        0007
_PORTCbits                          (abs)        0007
_RA0                                (abs)        0028
_RA1                                (abs)        0029
_RA2                                (abs)        002A
_RA3                                (abs)        002B
_RA4                                (abs)        002C
_RA5                                (abs)        002D
_RC0                                (abs)        0038
_RC1                                (abs)        0039
_RS                                 bitbssBANK0  03D8
_TRISAbits                          (abs)        0085
_TRISBbits                          (abs)        0086
_TRISCbits                          (abs)        0087
__Habs1                             abs1         0000
__Hbank0                            bank0        0000
__Hbank1                            bank1        0000
__Hbank2                            bank2        0000
__Hbank3                            bank3        0000
__HbitbssBANK0                      bitbssBANK0  0000
__HbssBANK0                         bssBANK0     0000
__HbssBANK1                         bssBANK1     0000
__Hcinit                            cinit        0800
__Hclrtext                          clrtext      0000
__Hcode                             code         0000
__Hcommon                           common       0000
__Hconfig                           config       2008
__HcstackBANK0                      cstackBANK0  0000
__HcstackCOMMON                     cstackCOMMON 0000
__HdataBANK0                        dataBANK0    0000
__HdataBANK1                        dataBANK1    0000
__Heeprom_data                      eeprom_data  0000
__Hend_init                         end_init     0002
__Hfunctab                          functab      0000
__HidataBANK0                       idataBANK0   0000
__HidataBANK1                       idataBANK1   0000
__Hinit                             init         0000
__Hinittext                         inittext     0000
__Hintentry                         intentry     0000
__Hmaintext                         maintext     0000
__Hpowerup                          powerup      0000
__Hram                              ram          0000
__Hreset_vec                        reset_vec    0000
__Hsfr0                             sfr0         0000
__Hsfr1                             sfr1         0000
__Hsfr2                             sfr2         0000
__Hsfr3                             sfr3         0000
__Hspace_0                          (abs)        0800
__Hspace_1                          (abs)        03D9
__Hspace_2                          (abs)        0000
__Hspace_3                          (abs)        0000
__Hspace_4                          (abs)        400F
__Hstack                            stack        0000
__Hstrings                          strings      0000
__Htext                             text         0000
__Labs1                             abs1         0000
__Lbank0                            bank0        0000
__Lbank1                            bank1        0000
__Lbank2                            bank2        0000
__Lbank3                            bank3        0000
__LbitbssBANK0                      bitbssBANK0  0000
__LbssBANK0                         bssBANK0     0000
__LbssBANK1                         bssBANK1     0000
__Lcinit                            cinit        07D9
__Lclrtext                          clrtext      0000
__Lcode                             code         0000
__Lcommon                           common       0000
__Lconfig                           config       0000
__LcstackBANK0                      cstackBANK0  0000
__LcstackCOMMON                     cstackCOMMON 0000
__LdataBANK0                        dataBANK0    0000
__LdataBANK1                        dataBANK1    0000
__Leeprom_data                      eeprom_data  0000
__Lend_init                         end_init     0000
__Lfunctab                          functab      0000
__LidataBANK0                       idataBANK0   0000
__LidataBANK1                       idataBANK1   0000
__Linit                             init         0000
__Linittext                         inittext     0000
__Lintentry                         intentry     0000
__Lmaintext                         maintext     0000
__Lpowerup                          powerup      0000
__Lram                              ram          0000
__Lreset_vec                        reset_vec    0000
__Lsfr0                             sfr0         0000
__Lsfr1                             sfr1         0000
__Lsfr2                             sfr2         0000
__Lsfr3                             sfr3         0000
__Lspace_0                          (abs)        0000
__Lspace_1                          (abs)        0000
__Lspace_2                          (abs)        0000
__Lspace_3                          (abs)        0000
__Lspace_4                          (abs)        0000
__Lstack                            stack        0000
__Lstrings                          strings      0000
__Ltext                             text         0000
__S0                                (abs)        0800
__S1                                (abs)        00FE
__S2                                (abs)        0000
__S3                                (abs)        0000
___fltol                            text7        0446
___fltol@exp1                       cstackBANK0  002A
___fltol@f1                         cstackBANK0  0020
___fltol@sign1                      cstackBANK0  0029
___int_sp                           stack        0000
___latbits                          (abs)        0001
___lwdiv                            text6        027C
___lwdiv@counter                    cstackBANK0  0027
___lwdiv@dividend                   cstackBANK0  0022
___lwdiv@divisor                    cstackBANK0  0020
___lwdiv@quotient                   cstackBANK0  0025
___lwmod                            text5        0240
___lwmod@counter                    cstackBANK0  0025
___lwmod@dividend                   cstackBANK0  0022
___lwmod@divisor                    cstackBANK0  0020
___sp                               stack        0000
___stackhi                          (abs)        0000
___stacklo                          (abs)        0000
__end_of_LCD_Begin                  text15       062D
__end_of_LCD_Cmd                    text16       01A9
__end_of_LCD_Goto                   text12       01D9
__end_of_LCD_Print                  text11       0240
__end_of_LCD_PutC                   text14       0136
__end_of_LCD_Write_Nibble           text17       03DA
__end_of___fltol                    text7        04C2
__end_of___lwdiv                    text6        02C2
__end_of___lwmod                    text5        027C
__end_of__initialization            cinit        07FD
__end_of__stringtab                 strings      0012
__end_of_iniciar_puertos            text13       011F
__end_of_inicio_presentacion        text10       0379
__end_of_itoa                       text3        017B
__end_of_keypad_getkey              text8        0157
__end_of_keypad_readkey             text9        07D9
__end_of_main                       maintext     0701
__end_of_strcat                     text2        020B
__end_of_utoa                       text4        0446
__end_of_ventilator_screen          text1        0570
__initialization                    cinit        07D9
__pbitbssBANK0                      bitbssBANK0  03D8
__pbssBANK0                         bssBANK0     0077
__pbssBANK1                         bssBANK1     00FA
__pcstackBANK0                      cstackBANK0  0020
__pcstackCOMMON                     cstackCOMMON 0000
__pdataBANK0                        dataBANK0    0071
__pdataBANK1                        dataBANK1    00A0
__pidataBANK0                       idataBANK0   00F3
__pidataBANK1                       idataBANK1   02C2
__pmaintext                         maintext     062D
__pstrings                          strings      0002
__ptext1                            text1        04C2
__ptext10                           text10       031C
__ptext11                           text11       020B
__ptext12                           text12       01A9
__ptext13                           text13       010A
__ptext14                           text14       011F
__ptext15                           text15       0570
__ptext16                           text16       017B
__ptext17                           text17       0379
__ptext2                            text2        01D9
__ptext3                            text3        0157
__ptext4                            text4        03DA
__ptext5                            text5        0240
__ptext6                            text6        027C
__ptext7                            text7        0446
__ptext8                            text8        0136
__ptext9                            text9        0701
__size_of_LCD_Begin                 (abs)        0000
__size_of_LCD_Cmd                   (abs)        0000
__size_of_LCD_Goto                  (abs)        0000
__size_of_LCD_Print                 (abs)        0000
__size_of_LCD_PutC                  (abs)        0000
__size_of_LCD_Write_Nibble          (abs)        0000
__size_of___fltol                   (abs)        0000
__size_of___lwdiv                   (abs)        0000
__size_of___lwmod                   (abs)        0000
__size_of_iniciar_puertos           (abs)        0000
__size_of_inicio_presentacion       (abs)        0000
__size_of_itoa                      (abs)        0000
__size_of_keypad_getkey             (abs)        0000
__size_of_keypad_readkey            (abs)        0000
__size_of_main                      (abs)        0000
__size_of_strcat                    (abs)        0000
__size_of_utoa                      (abs)        0000
__size_of_ventilator_screen         (abs)        0000
__stringbase                        strings      0011
__stringtab                         strings      0002
_grupo                              dataBANK1    00F4
_iniciar_puertos                    text13       010A
_inicio_presentacion                text10       031C
_itoa                               text3        0157
_keypad_getkey                      text8        0136
_keypad_readkey                     text9        0701
_main                               maintext     062D
_presentacion                       dataBANK1    00C0
_saludo                             dataBANK1    00DD
_strcat                             text2        01D9
_utoa                               text4        03DA
_ventilator_screen                  text1        04C2
btemp                               (abs)        007E
end_of_initialization               cinit        07FD
inicio_presentacion@i               cstackBANK0  0030
inicio_presentacion@length          cstackBANK0  002A
inicio_presentacion@str             cstackBANK0  002C
init_fetch0                         inittext     00F9
init_ram0                           inittext     00FD
intlevel0                           functab      0000
intlevel1                           functab      0000
intlevel2                           functab      0000
intlevel3                           functab      0000
intlevel4                           functab      0000
intlevel5                           functab      0000
itoa@base                           cstackBANK0  0033
itoa@buf                            cstackBANK0  0036
itoa@val                            cstackBANK0  0031
keypad_getkey@key                   cstackBANK0  0022
main@c                              cstackBANK0  006E
main@i                              cstackBANK0  006F
reset_vec                           reset_vec    0000
start                               init         0000
start_initialization                cinit        07D9
strcat@cp                           cstackBANK0  0023
strcat@from                         cstackBANK0  0020
strcat@to                           cstackBANK0  0024
utoa@base                           cstackBANK0  002A
utoa@buf                            cstackBANK0  0030
utoa@c                              cstackBANK0  002F
utoa@v                              cstackBANK0  002D
utoa@val                            cstackBANK0  0028
ventilator_screen@F1129             dataBANK1    00B0
ventilator_screen@F1131             dataBANK1    00A0
ventilator_screen@vel               cstackBANK0  0053
ventilator_screen@vel_number        cstackBANK0  006A
ventilator_screen@vel_value         cstackBANK0  0063
ventilator_screen@ventilator_number cstackBANK0  003D
ventilator_screen@vol               cstackBANK0  0043
ventilator_screen@vol_value         cstackBANK0  0067
ventilator_screen@voltaje           cstackBANK0  0037
ventilator_screen@vrm               cstackBANK0  003B
wtemp0                              (abs)        007E


MODULE INFORMATION

Module		Function		Class		Link	Load	Size
C:\Program Files\Microchip\xc8\v2.32\pic\sources\c90\common\strcat.c
		_strcat        		CODE           	01D9	0000	50

C:\Program Files\Microchip\xc8\v2.32\pic\sources\c90\common\strcat.c estimated size: 50

./lcd.h
		_LCD_PutC      		CODE           	011F	0000	23
		_LCD_Cmd       		CODE           	017B	0000	46
		_LCD_Begin     		CODE           	0570	0000	189
		_LCD_Goto      		CODE           	01A9	0000	48
		_LCD_Print     		CODE           	020B	0000	53
		_LCD_Write_Nibble		CODE           	0379	0000	97

./lcd.h estimated size: 456

./kbd.h
		_keypad_getkey 		CODE           	0136	0000	33
		_keypad_readkey		CODE           	0701	0000	216

./kbd.h estimated size: 249

C:\Program Files\Microchip\xc8\v2.32\pic\sources\c90\common\lwmod.c
		___lwmod       		CODE           	0240	0000	60

C:\Program Files\Microchip\xc8\v2.32\pic\sources\c90\common\lwmod.c estimated size: 60

shared
		__stringtab    		STRING         	0002	0000	16
		__initialization		CODE           	07D9	0000	36

shared estimated size: 52

C:\Program Files\Microchip\xc8\v2.32\pic\sources\c90\common\lwdiv.c
		___lwdiv       		CODE           	027C	0000	70

C:\Program Files\Microchip\xc8\v2.32\pic\sources\c90\common\lwdiv.c estimated size: 70

main.c
		_iniciar_puertos		CODE           	010A	0000	21
		_main          		CODE           	062D	0000	212
		_ventilator_screen		CODE           	04C2	0000	174
		_inicio_presentacion		CODE           	031C	0000	93

main.c estimated size: 500

C:\Program Files\Microchip\xc8\v2.32\pic\sources\c90\common\fltol.c
		___fltol       		CODE           	0446	0000	124

C:\Program Files\Microchip\xc8\v2.32\pic\sources\c90\common\fltol.c estimated size: 124

C:\Program Files\Microchip\xc8\v2.32\pic\sources\c90\common\itoa.c
		_itoa          		CODE           	0157	0000	36
		_utoa          		CODE           	03DA	0000	108

C:\Program Files\Microchip\xc8\v2.32\pic\sources\c90\common\itoa.c estimated size: 144

