

Microchip MPLAB XC8 Assembler V2.32 build 20210201212658 
                                                                                               Tue Jun 22 14:43:02 2021

Microchip MPLAB XC8 C Compiler v2.32 (Free license) build 20210201212658 Og1 
     1                           	processor	16F873A
     2                           	pagewidth 120
     3                           	opt	flic
     4                           	psect	idataBANK0,global,class=CODE,delta=2,noexec
     5                           	psect	idataBANK1,global,class=CODE,delta=2,noexec
     6                           	psect	strings,global,class=STRING,delta=2,noexec
     7                           	psect	cinit,global,class=CODE,merge=1,delta=2
     8                           	psect	bitbssBANK0,global,bit,class=BANK0,space=1,delta=1,noexec
     9                           	psect	bssBANK0,global,class=BANK0,space=1,delta=1,noexec
    10                           	psect	dataBANK0,global,class=BANK0,space=1,delta=1,noexec
    11                           	psect	bssBANK1,global,class=BANK1,space=1,delta=1,noexec
    12                           	psect	dataBANK1,global,class=BANK1,space=1,delta=1,noexec
    13                           	psect	inittext,global,class=CODE,delta=2
    14                           	psect	cstackCOMMON,global,class=COMMON,space=1,delta=1,noexec
    15                           	psect	cstackBANK0,global,class=BANK0,space=1,delta=1,noexec
    16                           	psect	maintext,global,class=CODE,split=1,delta=2
    17                           	psect	text1,local,class=CODE,merge=1,delta=2
    18                           	psect	text2,local,class=CODE,merge=1,delta=2,group=2
    19                           	psect	text3,local,class=CODE,merge=1,delta=2,group=2
    20                           	psect	text4,local,class=CODE,merge=1,delta=2,group=2
    21                           	psect	text5,local,class=CODE,merge=1,delta=2,group=1
    22                           	psect	text6,local,class=CODE,merge=1,delta=2,group=1
    23                           	psect	text7,local,class=CODE,merge=1,delta=2,group=1
    24                           	psect	text8,local,class=CODE,merge=1,delta=2
    25                           	psect	text9,local,class=CODE,merge=1,delta=2
    26                           	psect	text10,local,class=CODE,merge=1,delta=2
    27                           	psect	text11,local,class=CODE,merge=1,delta=2
    28                           	psect	text12,local,class=CODE,merge=1,delta=2
    29                           	psect	text13,local,class=CODE,merge=1,delta=2
    30                           	psect	text14,local,class=CODE,merge=1,delta=2
    31                           	psect	text15,local,class=CODE,merge=1,delta=2
    32                           	psect	text16,local,class=CODE,merge=1,delta=2
    33                           	psect	text17,local,class=CODE,merge=1,delta=2
    34                           	psect	config,global,abs,ovrld,class=CONFIG,space=4,delta=2,noexec
    35                           	dabs	1,0x7E,2
    36  0000                     
    37                           ; Version 2.20
    38                           ; Generated 12/02/2020 GMT
    39                           ; 
    40                           ; Copyright © 2020, Microchip Technology Inc. and its subsidiaries ("Microchip")
    41                           ; All rights reserved.
    42                           ; 
    43                           ; This software is developed by Microchip Technology Inc. and its subsidiaries ("Microch
      +                          ip").
    44                           ; 
    45                           ; Redistribution and use in source and binary forms, with or without modification, are
    46                           ; permitted provided that the following conditions are met:
    47                           ; 
    48                           ;     1. Redistributions of source code must retain the above copyright notice, this lis
      +                          t of
    49                           ;        conditions and the following disclaimer.
    50                           ; 
    51                           ;     2. Redistributions in binary form must reproduce the above copyright notice, this 
      +                          list
    52                           ;        of conditions and the following disclaimer in the documentation and/or other
    53                           ;        materials provided with the distribution.
    54                           ; 
    55                           ;     3. Microchip's name may not be used to endorse or promote products derived from th
      +                          is
    56                           ;        software without specific prior written permission.
    57                           ; 
    58                           ; THIS SOFTWARE IS PROVIDED BY MICROCHIP "AS IS" AND ANY EXPRESS OR IMPLIED WARRANTIES,
    59                           ; INCLUDING, BUT NOT LIMITED TO, THE IMPLIED WARRANTIES OF MERCHANTABILITY AND FITNESS F
      +                          OR
    60                           ; PURPOSE ARE DISCLAIMED.  IN NO EVENT SHALL MICROCHIP BE LIABLE FOR ANY DIRECT, INDIREC
      +                          T,
    61                           ; INCIDENTAL, SPECIAL, EXEMPLARY, OR CONSEQUENTIAL DAMAGES (INCLUDING BUT NOT LIMITED TO
    62                           ; PROCUREMENT OF SUBSTITUTE GOODS OR SERVICES; LOSS OF USE, DATA OR PROFITS; OR BUSINESS
    63                           ; INTERRUPTION) HOWSOEVER CAUSED AND ON ANY THEORY OF LIABILITY, WHETHER IN CONTRACT, ST
      +                          RICT
    64                           ; LIABILITY, OR TORT (INCLUDING NEGLIGENCE OR OTHERWISE) ARISING IN ANY WAY OUT OF THE U
      +                          SE OF
    65                           ; THIS SOFTWARE, EVEN IF ADVISED OF THE POSSIBILITY OF SUCH DAMAGE.
    66                           ; 
    67                           ; 
    68                           ; Code-generator required, PIC16F873A Definitions
    69                           ; 
    70                           ; SFR Addresses
    71  0000                     	;# 
    72  0001                     	;# 
    73  0002                     	;# 
    74  0003                     	;# 
    75  0004                     	;# 
    76  0005                     	;# 
    77  0006                     	;# 
    78  0007                     	;# 
    79  000A                     	;# 
    80  000B                     	;# 
    81  000C                     	;# 
    82  000D                     	;# 
    83  000E                     	;# 
    84  000E                     	;# 
    85  000F                     	;# 
    86  0010                     	;# 
    87  0011                     	;# 
    88  0012                     	;# 
    89  0013                     	;# 
    90  0014                     	;# 
    91  0015                     	;# 
    92  0015                     	;# 
    93  0016                     	;# 
    94  0017                     	;# 
    95  0018                     	;# 
    96  0019                     	;# 
    97  001A                     	;# 
    98  001B                     	;# 
    99  001B                     	;# 
   100  001C                     	;# 
   101  001D                     	;# 
   102  001E                     	;# 
   103  001F                     	;# 
   104  0081                     	;# 
   105  0085                     	;# 
   106  0086                     	;# 
   107  0087                     	;# 
   108  008C                     	;# 
   109  008D                     	;# 
   110  008E                     	;# 
   111  0091                     	;# 
   112  0092                     	;# 
   113  0093                     	;# 
   114  0094                     	;# 
   115  0098                     	;# 
   116  0099                     	;# 
   117  009C                     	;# 
   118  009D                     	;# 
   119  009E                     	;# 
   120  009F                     	;# 
   121  010C                     	;# 
   122  010D                     	;# 
   123  010E                     	;# 
   124  010F                     	;# 
   125  018C                     	;# 
   126  018D                     	;# 
   127  0000                     	;# 
   128  0001                     	;# 
   129  0002                     	;# 
   130  0003                     	;# 
   131  0004                     	;# 
   132  0005                     	;# 
   133  0006                     	;# 
   134  0007                     	;# 
   135  000A                     	;# 
   136  000B                     	;# 
   137  000C                     	;# 
   138  000D                     	;# 
   139  000E                     	;# 
   140  000E                     	;# 
   141  000F                     	;# 
   142  0010                     	;# 
   143  0011                     	;# 
   144  0012                     	;# 
   145  0013                     	;# 
   146  0014                     	;# 
   147  0015                     	;# 
   148  0015                     	;# 
   149  0016                     	;# 
   150  0017                     	;# 
   151  0018                     	;# 
   152  0019                     	;# 
   153  001A                     	;# 
   154  001B                     	;# 
   155  001B                     	;# 
   156  001C                     	;# 
   157  001D                     	;# 
   158  001E                     	;# 
   159  001F                     	;# 
   160  0081                     	;# 
   161  0085                     	;# 
   162  0086                     	;# 
   163  0087                     	;# 
   164  008C                     	;# 
   165  008D                     	;# 
   166  008E                     	;# 
   167  0091                     	;# 
   168  0092                     	;# 
   169  0093                     	;# 
   170  0094                     	;# 
   171  0098                     	;# 
   172  0099                     	;# 
   173  009C                     	;# 
   174  009D                     	;# 
   175  009E                     	;# 
   176  009F                     	;# 
   177  010C                     	;# 
   178  010D                     	;# 
   179  010E                     	;# 
   180  010F                     	;# 
   181  018C                     	;# 
   182  018D                     	;# 
   183                           
   184                           	psect	idataBANK0
   185  00F3                     __pidataBANK0:
   186                           
   187                           ;initializer for _length_saludo
   188  00F3  3416               	retlw	22
   189  00F4  3400               	retlw	0
   190                           
   191                           ;initializer for _length_presentacion
   192  00F5  3426               	retlw	38
   193  00F6  3400               	retlw	0
   194                           
   195                           ;initializer for _length_grupo
   196  00F7  3405               	retlw	5
   197  00F8  3400               	retlw	0
   198                           
   199                           	psect	idataBANK1
   200  02C2                     __pidataBANK1:
   201                           
   202                           ;initializer for ventilator_screen@F1131
   203  02C2  3456               	retlw	86
   204  02C3  3465               	retlw	101
   205  02C4  346C               	retlw	108
   206  02C5  3420               	retlw	32
   207  02C6  3400               	retlw	0
   208  02C7  3400               	retlw	0
   209  02C8  3400               	retlw	0
   210  02C9  3400               	retlw	0
   211  02CA  3400               	retlw	0
   212  02CB  3400               	retlw	0
   213  02CC  3400               	retlw	0
   214  02CD  3400               	retlw	0
   215  02CE  3400               	retlw	0
   216  02CF  3400               	retlw	0
   217  02D0  3400               	retlw	0
   218  02D1  3400               	retlw	0
   219                           
   220                           ;initializer for ventilator_screen@F1129
   221  02D2  3456               	retlw	86
   222  02D3  346F               	retlw	111
   223  02D4  346C               	retlw	108
   224  02D5  3474               	retlw	116
   225  02D6  3461               	retlw	97
   226  02D7  346A               	retlw	106
   227  02D8  3465               	retlw	101
   228  02D9  343A               	retlw	58
   229  02DA  3420               	retlw	32
   230  02DB  3400               	retlw	0
   231  02DC  3400               	retlw	0
   232  02DD  3400               	retlw	0
   233  02DE  3400               	retlw	0
   234  02DF  3400               	retlw	0
   235  02E0  3400               	retlw	0
   236  02E1  3400               	retlw	0
   237                           
   238                           ;initializer for _presentacion
   239  02E2  344A               	retlw	74
   240  02E3  346F               	retlw	111
   241  02E4  3473               	retlw	115
   242  02E5  3465               	retlw	101
   243  02E6  3420               	retlw	32
   244  02E7  3452               	retlw	82
   245  02E8  346F               	retlw	111
   246  02E9  3464               	retlw	100
   247  02EA  3472               	retlw	114
   248  02EB  3469               	retlw	105
   249  02EC  3467               	retlw	103
   250  02ED  3475               	retlw	117
   251  02EE  3465               	retlw	101
   252  02EF  347A               	retlw	122
   253  02F0  3420               	retlw	32
   254  02F1  3479               	retlw	121
   255  02F2  3420               	retlw	32
   256  02F3  344B               	retlw	75
   257  02F4  3461               	retlw	97
   258  02F5  3472               	retlw	114
   259  02F6  346C               	retlw	108
   260  02F7  3461               	retlw	97
   261  02F8  3420               	retlw	32
   262  02F9  3452               	retlw	82
   263  02FA  3465               	retlw	101
   264  02FB  3479               	retlw	121
   265  02FC  3465               	retlw	101
   266  02FD  3473               	retlw	115
   267  02FE  3400               	retlw	0
   268                           
   269                           ;initializer for _saludo
   270  02FF  3448               	retlw	72
   271  0300  346F               	retlw	111
   272  0301  346C               	retlw	108
   273  0302  3461               	retlw	97
   274  0303  3420               	retlw	32
   275  0304  344D               	retlw	77
   276  0305  3475               	retlw	117
   277  0306  346E               	retlw	110
   278  0307  3464               	retlw	100
   279  0308  346F               	retlw	111
   280  0309  3420               	retlw	32
   281  030A  3462               	retlw	98
   282  030B  3469               	retlw	105
   283  030C  3465               	retlw	101
   284  030D  346E               	retlw	110
   285  030E  3476               	retlw	118
   286  030F  3465               	retlw	101
   287  0310  346E               	retlw	110
   288  0311  3469               	retlw	105
   289  0312  3464               	retlw	100
   290  0313  346F               	retlw	111
   291  0314  3421               	retlw	33
   292  0315  3400               	retlw	0
   293                           
   294                           ;initializer for _grupo
   295  0316  3433               	retlw	51
   296  0317  3443               	retlw	67
   297  0318  3456               	retlw	86
   298  0319  3431               	retlw	49
   299  031A  3436               	retlw	54
   300  031B  3400               	retlw	0
   301  0007                     _PORTC	set	7
   302  0006                     _PORTB	set	6
   303  0005                     _PORTA	set	5
   304  0006                     _PORTBbits	set	6
   305  0007                     _PORTCbits	set	7
   306  002B                     _RA3	set	43
   307  002A                     _RA2	set	42
   308  0029                     _RA1	set	41
   309  0028                     _RA0	set	40
   310  002C                     _RA4	set	44
   311  002D                     _RA5	set	45
   312  0038                     _RC0	set	56
   313  0039                     _RC1	set	57
   314  009F                     _ADCON1	set	159
   315  0085                     _TRISAbits	set	133
   316  0086                     _TRISBbits	set	134
   317  0087                     _TRISCbits	set	135
   318                           
   319                           	psect	strings
   320  0002                     __pstrings:
   321  0002                     stringtab:
   322  0002                     __stringtab:
   323                           
   324                           ;	String table - string pointers are 1 byte each
   325  0002  1BFF               	btfsc	btemp+1,7
   326  0003  280C               	ljmp	stringcode
   327  0004  1383               	bcf	3,7
   328  0005  187F               	btfsc	btemp+1,0
   329  0006  1783               	bsf	3,7
   330  0007  0800               	movf	0,w
   331  0008  0A84               	incf	4,f
   332  0009  1903               	skipnz
   333  000A  0AFF               	incf	btemp+1,f
   334  000B  0008               	return
   335  000C                     stringcode:
   336  000C                     stringdir:
   337  000C  3000               	movlw	high stringdir
   338  000D  008A               	movwf	10
   339  000E  0804               	movf	4,w
   340  000F  0A84               	incf	4,f
   341  0010  0782               	addwf	2,f
   342  0011                     __stringbase:
   343  0011  3400               	retlw	0
   344  0012                     __end_of__stringtab:
   345  0012                     STR_2:
   346  0012  3420               	retlw	32	;' '
   347  0013  3452               	retlw	82	;'R'
   348  0014  3450               	retlw	80	;'P'
   349  0015  344D               	retlw	77	;'M'
   350  0016  3400               	retlw	0
   351  0017                     STR_1:
   352  0017  343A               	retlw	58	;':'
   353  0018  3420               	retlw	32	;' '
   354  0019  3400               	retlw	0
   355                           
   356                           	psect	cinit
   357  07D9                     start_initialization:	
   358                           ; #config settings
   359                           
   360  07D9                     __initialization:
   361                           
   362                           ; Initialize objects allocated to BANK1
   363  07D9  1383               	bcf	3,7	;select IRP bank0
   364  07DA  30FA               	movlw	low (__pdataBANK1+90)
   365  07DB  00FD               	movwf	btemp+-1
   366  07DC  3002               	movlw	high __pidataBANK1
   367  07DD  00FE               	movwf	btemp
   368  07DE  30C2               	movlw	low __pidataBANK1
   369  07DF  00FF               	movwf	btemp+1
   370  07E0  30A0               	movlw	low __pdataBANK1
   371  07E1  0084               	movwf	4
   372  07E2  118A  20FD  118A   	fcall	init_ram0
   373                           
   374                           ; Initialize objects allocated to BANK0
   375  07E5  3077               	movlw	low (__pdataBANK0+6)
   376  07E6  00FD               	movwf	btemp+-1
   377  07E7  3000               	movlw	high __pidataBANK0
   378  07E8  00FE               	movwf	btemp
   379  07E9  30F3               	movlw	low __pidataBANK0
   380  07EA  00FF               	movwf	btemp+1
   381  07EB  3071               	movlw	low __pdataBANK0
   382  07EC  0084               	movwf	4
   383  07ED  118A  20FD  118A   	fcall	init_ram0
   384                           
   385                           ; Clear objects allocated to BANK1
   386  07F0  1683               	bsf	3,5	;RP0=1, select bank1
   387  07F1  1303               	bcf	3,6	;RP1=0, select bank1
   388  07F2  01FA               	clrf	__pbssBANK1& (0+127)
   389  07F3  01FB               	clrf	(__pbssBANK1+1)& (0+127)
   390  07F4  01FC               	clrf	(__pbssBANK1+2)& (0+127)
   391  07F5  01FD               	clrf	(__pbssBANK1+3)& (0+127)
   392                           
   393                           ; Clear objects allocated to BANK0
   394  07F6  1283               	bcf	3,5	;RP0=0, select bank0
   395  07F7  1303               	bcf	3,6	;RP1=0, select bank0
   396  07F8  01F7               	clrf	__pbssBANK0& (0+127)
   397  07F9  01F8               	clrf	(__pbssBANK0+1)& (0+127)
   398  07FA  01F9               	clrf	(__pbssBANK0+2)& (0+127)
   399  07FB  01FA               	clrf	(__pbssBANK0+3)& (0+127)
   400                           
   401                           ; Clear objects allocated to BITBANK0
   402  07FC  01FB               	clrf	(__pbitbssBANK0/(0+8))& (0+127)
   403  07FD                     end_of_initialization:	
   404                           ;End of C runtime variable initialization code
   405                           
   406  07FD                     __end_of__initialization:
   407  07FD  0183               	clrf	3
   408  07FE  118A  2E2D         	ljmp	_main	;jump to C main() function
   409                           
   410                           	psect	bitbssBANK0
   411  03D8                     __pbitbssBANK0:
   412  03D8                     _RS:
   413  03D8                     	ds	1
   414                           
   415                           	psect	bssBANK0
   416  0077                     __pbssBANK0:
   417  0077                     _ADRES:
   418  0077                     	ds	2
   419  0079                     _ECO:
   420  0079                     	ds	2
   421                           
   422                           	psect	dataBANK0
   423  0071                     __pdataBANK0:
   424  0071                     _length_saludo:
   425  0071                     	ds	2
   426  0073                     _length_presentacion:
   427  0073                     	ds	2
   428  0075                     _length_grupo:
   429  0075                     	ds	2
   430                           
   431                           	psect	bssBANK1
   432  00FA                     __pbssBANK1:
   433  00FA                     _number:
   434  00FA                     	ds	4
   435                           
   436                           	psect	dataBANK1
   437  00A0                     __pdataBANK1:
   438  00A0                     ventilator_screen@F1131:
   439  00A0                     	ds	16
   440  00B0                     ventilator_screen@F1129:
   441  00B0                     	ds	16
   442  00C0                     _presentacion:
   443  00C0                     	ds	29
   444  00DD                     _saludo:
   445  00DD                     	ds	23
   446  00F4                     _grupo:
   447  00F4                     	ds	6
   448                           
   449                           	psect	inittext
   450  00F9                     init_fetch0:	
   451                           ;	Called with low address in FSR and high address in W
   452                           
   453  00F9  087E               	movf	btemp,w
   454  00FA  008A               	movwf	10
   455  00FB  087F               	movf	btemp+1,w
   456  00FC  0082               	movwf	2
   457  00FD                     init_ram0:	
   458                           ;Called with:
   459                           ;	high address of idata address in btemp 
   460                           ;	low address of idata address in btemp+1 
   461                           ;	low address of data in FSR
   462                           ;	high address + 1 of data in btemp-1
   463                           
   464  00FD  118A  20F9  118A   	fcall	init_fetch0
   465  0100  0080               	movwf	0
   466  0101  0A84               	incf	4,f
   467  0102  0804               	movf	4,w
   468  0103  067D               	xorwf	btemp+-1,w
   469  0104  1903               	btfsc	3,2
   470  0105  3400               	retlw	0
   471  0106  0AFF               	incf	btemp+1,f
   472  0107  1903               	btfsc	3,2
   473  0108  0AFE               	incf	btemp,f
   474  0109  28FD               	goto	init_ram0
   475                           
   476                           	psect	cstackCOMMON
   477  0000                     __pcstackCOMMON:
   478  0000                     ??_iniciar_puertos:
   479                           
   480                           	psect	cstackBANK0
   481  0020                     __pcstackBANK0:	
   482                           ; 1 bytes @ 0x0
   483                           
   484  0020                     ?_iniciar_puertos:
   485  0020                     ?_strcat:	
   486                           ; 1 bytes @ 0x0
   487                           
   488  0020                     ?_LCD_Write_Nibble:	
   489                           ; 1 bytes @ 0x0
   490                           
   491  0020                     ??_LCD_Write_Nibble:	
   492                           ; 1 bytes @ 0x0
   493                           
   494  0020                     ?_LCD_Cmd:	
   495                           ; 1 bytes @ 0x0
   496                           
   497  0020                     ?_LCD_PutC:	
   498                           ; 1 bytes @ 0x0
   499                           
   500  0020                     ?_LCD_Print:	
   501                           ; 1 bytes @ 0x0
   502                           
   503  0020                     ?_LCD_Begin:	
   504                           ; 1 bytes @ 0x0
   505                           
   506  0020                     ?_keypad_readkey:	
   507                           ; 1 bytes @ 0x0
   508                           
   509  0020                     ??_keypad_readkey:	
   510                           ; 1 bytes @ 0x0
   511                           
   512  0020                     ?_keypad_getkey:	
   513                           ; 1 bytes @ 0x0
   514                           
   515  0020                     ?_main:	
   516                           ; 1 bytes @ 0x0
   517                           
   518  0020                     ?___lwdiv:	
   519                           ; 2 bytes @ 0x0
   520                           
   521  0020                     ?___lwmod:	
   522                           ; 2 bytes @ 0x0
   523                           
   524  0020                     ?___fltol:	
   525                           ; 2 bytes @ 0x0
   526                           
   527  0020                     ___lwdiv@divisor:	
   528                           ; 4 bytes @ 0x0
   529                           
   530  0020                     ___lwmod@divisor:	
   531                           ; 2 bytes @ 0x0
   532                           
   533  0020                     strcat@from:	
   534                           ; 2 bytes @ 0x0
   535                           
   536  0020                     ___fltol@f1:	
   537                           ; 2 bytes @ 0x0
   538                           
   539                           
   540                           ; 4 bytes @ 0x0
   541  0020                     	ds	1
   542  0021                     ??_keypad_getkey:
   543                           
   544                           ; 1 bytes @ 0x1
   545  0021                     	ds	1
   546  0022                     ??_strcat:
   547  0022                     LCD_Write_Nibble@n:	
   548                           ; 1 bytes @ 0x2
   549                           
   550  0022                     keypad_getkey@key:	
   551                           ; 1 bytes @ 0x2
   552                           
   553  0022                     ___lwdiv@dividend:	
   554                           ; 1 bytes @ 0x2
   555                           
   556  0022                     ___lwmod@dividend:	
   557                           ; 2 bytes @ 0x2
   558                           
   559                           
   560                           ; 2 bytes @ 0x2
   561  0022                     	ds	1
   562  0023                     ??_LCD_Cmd:
   563  0023                     ??_LCD_PutC:	
   564                           ; 1 bytes @ 0x3
   565                           
   566  0023                     ??_LCD_Print:	
   567                           ; 1 bytes @ 0x3
   568                           
   569  0023                     strcat@cp:	
   570                           ; 1 bytes @ 0x3
   571                           
   572                           
   573                           ; 1 bytes @ 0x3
   574  0023                     	ds	1
   575  0024                     ??___fltol:
   576  0024                     ??___lwdiv:	
   577                           ; 1 bytes @ 0x4
   578                           
   579  0024                     ??___lwmod:	
   580                           ; 1 bytes @ 0x4
   581                           
   582  0024                     LCD_PutC@LCD_Char:	
   583                           ; 1 bytes @ 0x4
   584                           
   585  0024                     strcat@to:	
   586                           ; 1 bytes @ 0x4
   587                           
   588                           
   589                           ; 1 bytes @ 0x4
   590  0024                     	ds	1
   591  0025                     LCD_Cmd@Command:
   592  0025                     LCD_Print@i:	
   593                           ; 1 bytes @ 0x5
   594                           
   595  0025                     ___lwmod@counter:	
   596                           ; 1 bytes @ 0x5
   597                           
   598  0025                     ___lwdiv@quotient:	
   599                           ; 1 bytes @ 0x5
   600                           
   601                           
   602                           ; 2 bytes @ 0x5
   603  0025                     	ds	1
   604  0026                     ?_LCD_Goto:
   605  0026                     ??_LCD_Begin:	
   606                           ; 1 bytes @ 0x6
   607                           
   608  0026                     LCD_Goto@row:	
   609                           ; 1 bytes @ 0x6
   610                           
   611  0026                     LCD_Print@LCD_Str:	
   612                           ; 1 bytes @ 0x6
   613                           
   614                           
   615                           ; 1 bytes @ 0x6
   616  0026                     	ds	1
   617  0027                     ??_LCD_Goto:
   618  0027                     ___lwdiv@counter:	
   619                           ; 1 bytes @ 0x7
   620                           
   621                           
   622                           ; 1 bytes @ 0x7
   623  0027                     	ds	1
   624  0028                     ?_utoa:
   625  0028                     utoa@val:	
   626                           ; 1 bytes @ 0x8
   627                           
   628                           
   629                           ; 2 bytes @ 0x8
   630  0028                     	ds	1
   631  0029                     LCD_Goto@col:
   632  0029                     ___fltol@sign1:	
   633                           ; 1 bytes @ 0x9
   634                           
   635                           
   636                           ; 1 bytes @ 0x9
   637  0029                     	ds	1
   638  002A                     ?_inicio_presentacion:
   639  002A                     ___fltol@exp1:	
   640                           ; 1 bytes @ 0xA
   641                           
   642  002A                     inicio_presentacion@length:	
   643                           ; 1 bytes @ 0xA
   644                           
   645  002A                     utoa@base:	
   646                           ; 2 bytes @ 0xA
   647                           
   648                           
   649                           ; 2 bytes @ 0xA
   650  002A                     	ds	2
   651  002C                     ??_utoa:
   652  002C                     inicio_presentacion@str:	
   653                           ; 1 bytes @ 0xC
   654                           
   655                           
   656                           ; 1 bytes @ 0xC
   657  002C                     	ds	1
   658  002D                     ??_inicio_presentacion:
   659  002D                     utoa@v:	
   660                           ; 1 bytes @ 0xD
   661                           
   662                           
   663                           ; 2 bytes @ 0xD
   664  002D                     	ds	2
   665  002F                     utoa@c:
   666                           
   667                           ; 1 bytes @ 0xF
   668  002F                     	ds	1
   669  0030                     utoa@buf:
   670  0030                     inicio_presentacion@i:	
   671                           ; 1 bytes @ 0x10
   672                           
   673                           
   674                           ; 2 bytes @ 0x10
   675  0030                     	ds	1
   676  0031                     ?_itoa:
   677  0031                     itoa@val:	
   678                           ; 1 bytes @ 0x11
   679                           
   680                           
   681                           ; 2 bytes @ 0x11
   682  0031                     	ds	2
   683  0033                     itoa@base:
   684                           
   685                           ; 2 bytes @ 0x13
   686  0033                     	ds	2
   687  0035                     ??_itoa:
   688                           
   689                           ; 1 bytes @ 0x15
   690  0035                     	ds	1
   691  0036                     itoa@buf:
   692                           
   693                           ; 1 bytes @ 0x16
   694  0036                     	ds	1
   695  0037                     ?_ventilator_screen:
   696  0037                     ventilator_screen@voltaje:	
   697                           ; 1 bytes @ 0x17
   698                           
   699                           
   700                           ; 4 bytes @ 0x17
   701  0037                     	ds	4
   702  003B                     ventilator_screen@vrm:
   703                           
   704                           ; 2 bytes @ 0x1B
   705  003B                     	ds	2
   706  003D                     ventilator_screen@ventilator_number:
   707                           
   708                           ; 2 bytes @ 0x1D
   709  003D                     	ds	2
   710  003F                     ??_ventilator_screen:
   711                           
   712                           ; 1 bytes @ 0x1F
   713  003F                     	ds	4
   714  0043                     ventilator_screen@vol:
   715                           
   716                           ; 16 bytes @ 0x23
   717  0043                     	ds	16
   718  0053                     ventilator_screen@vel:
   719                           
   720                           ; 16 bytes @ 0x33
   721  0053                     	ds	16
   722  0063                     ventilator_screen@vel_value:
   723                           
   724                           ; 4 bytes @ 0x43
   725  0063                     	ds	4
   726  0067                     ventilator_screen@vol_value:
   727                           
   728                           ; 3 bytes @ 0x47
   729  0067                     	ds	3
   730  006A                     ventilator_screen@vel_number:
   731                           
   732                           ; 1 bytes @ 0x4A
   733  006A                     	ds	1
   734  006B                     ??_main:
   735                           
   736                           ; 1 bytes @ 0x4B
   737  006B                     	ds	3
   738  006E                     main@c:
   739                           
   740                           ; 1 bytes @ 0x4E
   741  006E                     	ds	1
   742  006F                     main@i:
   743                           
   744                           ; 2 bytes @ 0x4F
   745  006F                     	ds	2
   746                           
   747                           	psect	maintext
   748  062D                     __pmaintext:	
   749 ;;
   750 ;;Main: autosize = 0, tempsize = 3, incstack = 0, save=0
   751 ;;
   752 ;; *************** function _main *****************
   753 ;; Defined at:
   754 ;;		line 42 in file "main.c"
   755 ;; Parameters:    Size  Location     Type
   756 ;;		None
   757 ;; Auto vars:     Size  Location     Type
   758 ;;  c               1   78[BANK0 ] unsigned char 
   759 ;;  i               2   79[BANK0 ] int 
   760 ;; Return value:  Size  Location     Type
   761 ;;                  2  147[None  ] int 
   762 ;; Registers used:
   763 ;;		wreg, fsr0l, fsr0h, status,2, status,0, btemp+1, pclath, cstack
   764 ;; Tracked objects:
   765 ;;		On entry : B00/0
   766 ;;		On exit  : 0/0
   767 ;;		Unchanged: 0/0
   768 ;; Data sizes:     COMMON   BANK0   BANK1
   769 ;;      Params:         0       0       0
   770 ;;      Locals:         0       3       0
   771 ;;      Temps:          0       3       0
   772 ;;      Totals:         0       6       0
   773 ;;Total ram usage:        6 bytes
   774 ;; Hardware stack levels required when called: 4
   775 ;; This function calls:
   776 ;;		_LCD_Begin
   777 ;;		_LCD_Goto
   778 ;;		_LCD_PutC
   779 ;;		_iniciar_puertos
   780 ;;		_inicio_presentacion
   781 ;;		_keypad_getkey
   782 ;;		_ventilator_screen
   783 ;; This function is called by:
   784 ;;		Startup code after reset
   785 ;; This function uses a non-reentrant model
   786 ;;
   787                           
   788                           
   789                           ;psect for function _main
   790  062D                     _main:
   791  062D                     l1742:	
   792                           ;incstack = 0
   793                           ; Regs used in _main: [wreg-fsr0h+status,2+status,0+btemp+1+pclath+cstack]
   794                           
   795                           
   796                           ;main.c: 44:     int i=1;
   797  062D  3001               	movlw	1
   798  062E  1283               	bcf	3,5	;RP0=0, select bank0
   799  062F  1303               	bcf	3,6	;RP1=0, select bank0
   800  0630  00EF               	movwf	main@i
   801  0631  3000               	movlw	0
   802  0632  00F0               	movwf	main@i+1
   803  0633                     l1744:
   804                           
   805                           ;main.c: 46:     iniciar_puertos();
   806  0633  118A  210A  118A   	fcall	_iniciar_puertos
   807  0636                     l1746:
   808                           
   809                           ;main.c: 48:     LCD_Begin();
   810  0636  118A  2570  118A   	fcall	_LCD_Begin
   811  0639                     l1748:
   812                           
   813                           ;main.c: 49:     inicio_presentacion(length_saludo, saludo);
   814  0639  3016               	movlw	22
   815  063A  1283               	bcf	3,5	;RP0=0, select bank0
   816  063B  1303               	bcf	3,6	;RP1=0, select bank0
   817  063C  00AA               	movwf	inicio_presentacion@length
   818  063D  3000               	movlw	0
   819  063E  00AB               	movwf	inicio_presentacion@length+1
   820  063F  30DD               	movlw	(low (_saludo| 0))& (0+255)
   821  0640  00EB               	movwf	??_main
   822  0641  086B               	movf	??_main,w
   823  0642  00AC               	movwf	inicio_presentacion@str
   824  0643  118A  231C  118A   	fcall	_inicio_presentacion
   825  0646                     l1750:
   826                           
   827                           ;main.c: 50:     _delay((unsigned long)((20)*(32000000/4000.0)));
   828  0646  30D0               	movlw	208
   829  0647  1283               	bcf	3,5	;RP0=0, select bank0
   830  0648  1303               	bcf	3,6	;RP1=0, select bank0
   831  0649  00EC               	movwf	??_main+1
   832  064A  30C9               	movlw	201
   833  064B  00EB               	movwf	??_main
   834  064C                     u1597:
   835  064C  0BEB               	decfsz	??_main,f
   836  064D  2E4C               	goto	u1597
   837  064E  0BEC               	decfsz	??_main+1,f
   838  064F  2E4C               	goto	u1597
   839  0650  0000               	nop
   840                           
   841                           ;main.c: 51:     inicio_presentacion(length_presentacion,presentacion);
   842  0651  3026               	movlw	38
   843  0652  1283               	bcf	3,5	;RP0=0, select bank0
   844  0653  1303               	bcf	3,6	;RP1=0, select bank0
   845  0654  00AA               	movwf	inicio_presentacion@length
   846  0655  3000               	movlw	0
   847  0656  00AB               	movwf	inicio_presentacion@length+1
   848  0657  30C0               	movlw	(low (_presentacion| 0))& (0+255)
   849  0658  00EB               	movwf	??_main
   850  0659  086B               	movf	??_main,w
   851  065A  00AC               	movwf	inicio_presentacion@str
   852  065B  118A  231C  118A   	fcall	_inicio_presentacion
   853  065E                     l1752:
   854                           
   855                           ;main.c: 52:     _delay((unsigned long)((20)*(32000000/4000.0)));
   856  065E  30D0               	movlw	208
   857  065F  1283               	bcf	3,5	;RP0=0, select bank0
   858  0660  1303               	bcf	3,6	;RP1=0, select bank0
   859  0661  00EC               	movwf	??_main+1
   860  0662  30C9               	movlw	201
   861  0663  00EB               	movwf	??_main
   862  0664                     u1607:
   863  0664  0BEB               	decfsz	??_main,f
   864  0665  2E64               	goto	u1607
   865  0666  0BEC               	decfsz	??_main+1,f
   866  0667  2E64               	goto	u1607
   867  0668  0000               	nop
   868  0669                     l1754:
   869                           
   870                           ;main.c: 53:     inicio_presentacion(length_grupo,grupo);
   871  0669  3005               	movlw	5
   872  066A  1283               	bcf	3,5	;RP0=0, select bank0
   873  066B  1303               	bcf	3,6	;RP1=0, select bank0
   874  066C  00AA               	movwf	inicio_presentacion@length
   875  066D  3000               	movlw	0
   876  066E  00AB               	movwf	inicio_presentacion@length+1
   877  066F  30F4               	movlw	(low (_grupo| 0))& (0+255)
   878  0670  00EB               	movwf	??_main
   879  0671  086B               	movf	??_main,w
   880  0672  00AC               	movwf	inicio_presentacion@str
   881  0673  118A  231C  118A   	fcall	_inicio_presentacion
   882                           
   883                           ;main.c: 54:     _delay((unsigned long)((20)*(32000000/4000.0)));
   884  0676  30D0               	movlw	208
   885  0677  1283               	bcf	3,5	;RP0=0, select bank0
   886  0678  1303               	bcf	3,6	;RP1=0, select bank0
   887  0679  00EC               	movwf	??_main+1
   888  067A  30C9               	movlw	201
   889  067B  00EB               	movwf	??_main
   890  067C                     u1617:
   891  067C  0BEB               	decfsz	??_main,f
   892  067D  2E7C               	goto	u1617
   893  067E  0BEC               	decfsz	??_main+1,f
   894  067F  2E7C               	goto	u1617
   895  0680  0000               	nop
   896  0681                     l1756:
   897                           
   898                           ;main.c: 55:     LCD_Goto(1, 1);
   899  0681  1283               	bcf	3,5	;RP0=0, select bank0
   900  0682  1303               	bcf	3,6	;RP1=0, select bank0
   901  0683  01A6               	clrf	LCD_Goto@row
   902  0684  0AA6               	incf	LCD_Goto@row,f
   903  0685  3001               	movlw	1
   904  0686  118A  21A9  118A   	fcall	_LCD_Goto
   905  0689                     l1758:
   906                           
   907                           ;main.c: 56:     _delay((unsigned long)((50)*(32000000/4000.0)));
   908  0689  3003               	movlw	3
   909  068A  1283               	bcf	3,5	;RP0=0, select bank0
   910  068B  1303               	bcf	3,6	;RP1=0, select bank0
   911  068C  00ED               	movwf	??_main+2
   912  068D  3008               	movlw	8
   913  068E  00EC               	movwf	??_main+1
   914  068F  3076               	movlw	118
   915  0690  00EB               	movwf	??_main
   916  0691                     u1627:
   917  0691  0BEB               	decfsz	??_main,f
   918  0692  2E91               	goto	u1627
   919  0693  0BEC               	decfsz	??_main+1,f
   920  0694  2E91               	goto	u1627
   921  0695  0BED               	decfsz	??_main+2,f
   922  0696  2E91               	goto	u1627
   923  0697  2E98               	nop2
   924  0698                     l1760:
   925                           
   926                           ;main.c: 60:     char c = keypad_getkey();
   927  0698  118A  2136  118A   	fcall	_keypad_getkey
   928  069B  1283               	bcf	3,5	;RP0=0, select bank0
   929  069C  1303               	bcf	3,6	;RP1=0, select bank0
   930  069D  00EB               	movwf	??_main
   931  069E  086B               	movf	??_main,w
   932  069F  00EE               	movwf	main@c
   933  06A0                     l1762:
   934                           
   935                           ;main.c: 61:         LCD_PutC(c);
   936  06A0  086E               	movf	main@c,w
   937  06A1  118A  211F  118A   	fcall	_LCD_PutC
   938  06A4                     l1764:
   939                           
   940                           ;main.c: 62:         if(c=='A')
   941  06A4  3041               	movlw	65
   942  06A5  1283               	bcf	3,5	;RP0=0, select bank0
   943  06A6  1303               	bcf	3,6	;RP1=0, select bank0
   944  06A7  066E               	xorwf	main@c,w
   945  06A8  1D03               	btfss	3,2
   946  06A9  2EAB               	goto	u1561
   947  06AA  2EAC               	goto	u1560
   948  06AB                     u1561:
   949  06AB  2EF0               	goto	l1778
   950  06AC                     u1560:
   951  06AC                     l1766:
   952                           
   953                           ;main.c: 63:         {;main.c: 64:             if(i==1){
   954  06AC  036F               	decf	main@i,w
   955  06AD  0470               	iorwf	main@i+1,w
   956  06AE  1D03               	btfss	3,2
   957  06AF  2EB1               	goto	u1571
   958  06B0  2EB2               	goto	u1570
   959  06B1                     u1571:
   960  06B1  2ECE               	goto	l1772
   961  06B2                     u1570:
   962  06B2                     l1768:
   963                           
   964                           ;main.c: 65:                 ventilator_screen(1.2,1000,1);
   965  06B2  303F               	movlw	63
   966  06B3  00BA               	movwf	ventilator_screen@voltaje+3
   967  06B4  3099               	movlw	153
   968  06B5  00B9               	movwf	ventilator_screen@voltaje+2
   969  06B6  3099               	movlw	153
   970  06B7  00B8               	movwf	ventilator_screen@voltaje+1
   971  06B8  309A               	movlw	154
   972  06B9  00B7               	movwf	ventilator_screen@voltaje
   973  06BA  30E8               	movlw	232
   974  06BB  00BB               	movwf	ventilator_screen@vrm
   975  06BC  3003               	movlw	3
   976  06BD  00BC               	movwf	ventilator_screen@vrm+1
   977  06BE  3001               	movlw	1
   978  06BF  00BD               	movwf	ventilator_screen@ventilator_number
   979  06C0  3000               	movlw	0
   980  06C1  00BE               	movwf	ventilator_screen@ventilator_number+1
   981  06C2  118A  24C2  118A   	fcall	_ventilator_screen
   982  06C5                     l1770:
   983                           
   984                           ;main.c: 66:             ++i;
   985  06C5  3001               	movlw	1
   986  06C6  1283               	bcf	3,5	;RP0=0, select bank0
   987  06C7  1303               	bcf	3,6	;RP1=0, select bank0
   988  06C8  07EF               	addwf	main@i,f
   989  06C9  1803               	skipnc
   990  06CA  0AF0               	incf	main@i+1,f
   991  06CB  3000               	movlw	0
   992  06CC  07F0               	addwf	main@i+1,f
   993                           
   994                           ;main.c: 67:             }
   995  06CD  2EF0               	goto	l1778
   996  06CE                     l1772:
   997  06CE  3002               	movlw	2
   998  06CF  066F               	xorwf	main@i,w
   999  06D0  0470               	iorwf	main@i+1,w
  1000  06D1  1D03               	btfss	3,2
  1001  06D2  2ED4               	goto	u1581
  1002  06D3  2ED5               	goto	u1580
  1003  06D4                     u1581:
  1004  06D4  2EF0               	goto	l1778
  1005  06D5                     u1580:
  1006  06D5                     l1774:
  1007                           
  1008                           ;main.c: 69:                 ventilator_screen(2.1,1000,2);
  1009  06D5  3040               	movlw	64
  1010  06D6  00BA               	movwf	ventilator_screen@voltaje+3
  1011  06D7  3006               	movlw	6
  1012  06D8  00B9               	movwf	ventilator_screen@voltaje+2
  1013  06D9  3066               	movlw	102
  1014  06DA  00B8               	movwf	ventilator_screen@voltaje+1
  1015  06DB  3066               	movlw	102
  1016  06DC  00B7               	movwf	ventilator_screen@voltaje
  1017  06DD  30E8               	movlw	232
  1018  06DE  00BB               	movwf	ventilator_screen@vrm
  1019  06DF  3003               	movlw	3
  1020  06E0  00BC               	movwf	ventilator_screen@vrm+1
  1021  06E1  3002               	movlw	2
  1022  06E2  00BD               	movwf	ventilator_screen@ventilator_number
  1023  06E3  3000               	movlw	0
  1024  06E4  00BE               	movwf	ventilator_screen@ventilator_number+1
  1025  06E5  118A  24C2  118A   	fcall	_ventilator_screen
  1026  06E8                     l1776:
  1027                           
  1028                           ;main.c: 70:                 --i;
  1029  06E8  30FF               	movlw	255
  1030  06E9  1283               	bcf	3,5	;RP0=0, select bank0
  1031  06EA  1303               	bcf	3,6	;RP1=0, select bank0
  1032  06EB  07EF               	addwf	main@i,f
  1033  06EC  1803               	skipnc
  1034  06ED  0AF0               	incf	main@i+1,f
  1035  06EE  30FF               	movlw	255
  1036  06EF  07F0               	addwf	main@i+1,f
  1037  06F0                     l1778:
  1038                           
  1039                           ;main.c: 74:     _delay((unsigned long)((500)*(32000000/4000.0)));
  1040  06F0  3015               	movlw	21
  1041  06F1  1283               	bcf	3,5	;RP0=0, select bank0
  1042  06F2  1303               	bcf	3,6	;RP1=0, select bank0
  1043  06F3  00ED               	movwf	??_main+2
  1044  06F4  304B               	movlw	75
  1045  06F5  00EC               	movwf	??_main+1
  1046  06F6  30BE               	movlw	190
  1047  06F7  00EB               	movwf	??_main
  1048  06F8                     u1637:
  1049  06F8  0BEB               	decfsz	??_main,f
  1050  06F9  2EF8               	goto	u1637
  1051  06FA  0BEC               	decfsz	??_main+1,f
  1052  06FB  2EF8               	goto	u1637
  1053  06FC  0BED               	decfsz	??_main+2,f
  1054  06FD  2EF8               	goto	u1637
  1055  06FE  2E98               	goto	l1760
  1056  06FF  118A  2800         	ljmp	start
  1057  0701                     __end_of_main:
  1058                           
  1059                           	psect	text1
  1060  04C2                     __ptext1:	
  1061 ;; *************** function _ventilator_screen *****************
  1062 ;; Defined at:
  1063 ;;		line 127 in file "main.c"
  1064 ;; Parameters:    Size  Location     Type
  1065 ;;  voltaje         4   23[BANK0 ] float 
  1066 ;;  vrm             2   27[BANK0 ] int 
  1067 ;;  ventilator_n    2   29[BANK0 ] int 
  1068 ;; Auto vars:     Size  Location     Type
  1069 ;;  vel            16   51[BANK0 ] unsigned char [16]
  1070 ;;  vol            16   35[BANK0 ] unsigned char [16]
  1071 ;;  vel_value       4   67[BANK0 ] unsigned char [4]
  1072 ;;  vol_value       3   71[BANK0 ] unsigned char [3]
  1073 ;;  vel_number      1   74[BANK0 ] unsigned char [1]
  1074 ;; Return value:  Size  Location     Type
  1075 ;;                  1    wreg      void 
  1076 ;; Registers used:
  1077 ;;		wreg, fsr0l, fsr0h, status,2, status,0, btemp+1, pclath, cstack
  1078 ;; Tracked objects:
  1079 ;;		On entry : 0/0
  1080 ;;		On exit  : 0/0
  1081 ;;		Unchanged: 0/0
  1082 ;; Data sizes:     COMMON   BANK0   BANK1
  1083 ;;      Params:         0       8       0
  1084 ;;      Locals:         0      40       0
  1085 ;;      Temps:          0       4       0
  1086 ;;      Totals:         0      52       0
  1087 ;;Total ram usage:       52 bytes
  1088 ;; Hardware stack levels used: 1
  1089 ;; Hardware stack levels required when called: 3
  1090 ;; This function calls:
  1091 ;;		_LCD_Goto
  1092 ;;		_LCD_Print
  1093 ;;		___fltol
  1094 ;;		_itoa
  1095 ;;		_strcat
  1096 ;; This function is called by:
  1097 ;;		_main
  1098 ;; This function uses a non-reentrant model
  1099 ;;
  1100                           
  1101                           
  1102                           ;psect for function _ventilator_screen
  1103  04C2                     _ventilator_screen:
  1104  04C2                     l1716:	
  1105                           ;incstack = 0
  1106                           ; Regs used in _ventilator_screen: [wreg-fsr0h+status,2+status,0+btemp+1+pclath+cstack]
  1107                           
  1108                           
  1109                           ;main.c: 127: void ventilator_screen(float voltaje, int vrm, int ventilator_number);main
      +                          .c: 128: {;main.c: 129:     unsigned char vol[16]="Voltaje: ";
  1110  04C2  3043               	movlw	ventilator_screen@vol& (0+255)
  1111  04C3  0084               	movwf	4
  1112  04C4  30B0               	movlw	low ventilator_screen@F1129
  1113  04C5  1283               	bcf	3,5	;RP0=0, select bank0
  1114  04C6  1303               	bcf	3,6	;RP1=0, select bank0
  1115  04C7  00BF               	movwf	??_ventilator_screen
  1116  04C8  0804               	movf	4,w
  1117  04C9  00C0               	movwf	??_ventilator_screen+1
  1118  04CA  3010               	movlw	16
  1119  04CB  00C1               	movwf	??_ventilator_screen+2
  1120  04CC                     u1540:
  1121  04CC  083F               	movf	??_ventilator_screen,w
  1122  04CD  0084               	movwf	4
  1123  04CE  1383               	bcf	3,7	;select IRP bank1
  1124  04CF  0800               	movf	0,w
  1125  04D0  00C2               	movwf	??_ventilator_screen+3
  1126  04D1  0ABF               	incf	??_ventilator_screen,f
  1127  04D2  0840               	movf	??_ventilator_screen+1,w
  1128  04D3  0084               	movwf	4
  1129  04D4  0842               	movf	??_ventilator_screen+3,w
  1130  04D5  0080               	movwf	0
  1131  04D6  0AC0               	incf	??_ventilator_screen+1,f
  1132  04D7  0BC1               	decfsz	??_ventilator_screen+2,f
  1133  04D8  2CCC               	goto	u1540
  1134                           
  1135                           ;main.c: 130:     unsigned char vel[16]="Vel ";
  1136  04D9  3053               	movlw	ventilator_screen@vel& (0+255)
  1137  04DA  0084               	movwf	4
  1138  04DB  30A0               	movlw	low ventilator_screen@F1131
  1139  04DC  00BF               	movwf	??_ventilator_screen
  1140  04DD  0804               	movf	4,w
  1141  04DE  00C0               	movwf	??_ventilator_screen+1
  1142  04DF  3010               	movlw	16
  1143  04E0  00C1               	movwf	??_ventilator_screen+2
  1144  04E1                     u1550:
  1145  04E1  083F               	movf	??_ventilator_screen,w
  1146  04E2  0084               	movwf	4
  1147  04E3  1383               	bcf	3,7	;select IRP bank1
  1148  04E4  0800               	movf	0,w
  1149  04E5  00C2               	movwf	??_ventilator_screen+3
  1150  04E6  0ABF               	incf	??_ventilator_screen,f
  1151  04E7  0840               	movf	??_ventilator_screen+1,w
  1152  04E8  0084               	movwf	4
  1153  04E9  0842               	movf	??_ventilator_screen+3,w
  1154  04EA  0080               	movwf	0
  1155  04EB  0AC0               	incf	??_ventilator_screen+1,f
  1156  04EC  0BC1               	decfsz	??_ventilator_screen+2,f
  1157  04ED  2CE1               	goto	u1550
  1158  04EE                     l1718:
  1159                           
  1160                           ;main.c: 131:     char vol_value[3];;main.c: 132:     char vel_number[1];;main.c: 133:  
      +                             char vel_value[4];;main.c: 138:     LCD_Goto(1,1);
  1161  04EE  01A6               	clrf	LCD_Goto@row
  1162  04EF  0AA6               	incf	LCD_Goto@row,f
  1163  04F0  3001               	movlw	1
  1164  04F1  118A  21A9  118A   	fcall	_LCD_Goto
  1165  04F4                     l1720:
  1166                           
  1167                           ;main.c: 141:     itoa(vol_value,voltaje,10);
  1168  04F4  1283               	bcf	3,5	;RP0=0, select bank0
  1169  04F5  1303               	bcf	3,6	;RP1=0, select bank0
  1170  04F6  083A               	movf	ventilator_screen@voltaje+3,w
  1171  04F7  00A3               	movwf	___fltol@f1+3
  1172  04F8  0839               	movf	ventilator_screen@voltaje+2,w
  1173  04F9  00A2               	movwf	___fltol@f1+2
  1174  04FA  0838               	movf	ventilator_screen@voltaje+1,w
  1175  04FB  00A1               	movwf	___fltol@f1+1
  1176  04FC  0837               	movf	ventilator_screen@voltaje,w
  1177  04FD  00A0               	movwf	___fltol@f1
  1178  04FE  118A  2446  118A   	fcall	___fltol
  1179  0501  1283               	bcf	3,5	;RP0=0, select bank0
  1180  0502  1303               	bcf	3,6	;RP1=0, select bank0
  1181  0503  0821               	movf	?___fltol+1,w
  1182  0504  00B2               	movwf	itoa@val+1
  1183  0505  0820               	movf	?___fltol,w
  1184  0506  00B1               	movwf	itoa@val
  1185  0507  300A               	movlw	10
  1186  0508  00B3               	movwf	itoa@base
  1187  0509  3000               	movlw	0
  1188  050A  00B4               	movwf	itoa@base+1
  1189  050B  3067               	movlw	(low (ventilator_screen@vol_value| 0))& (0+255)
  1190  050C  118A  2157  118A   	fcall	_itoa
  1191  050F                     l1722:
  1192                           
  1193                           ;main.c: 142:     strcat(vol,vol_value);
  1194  050F  3067               	movlw	(low (ventilator_screen@vol_value| 0))& (0+255)
  1195  0510  1283               	bcf	3,5	;RP0=0, select bank0
  1196  0511  1303               	bcf	3,6	;RP1=0, select bank0
  1197  0512  00A0               	movwf	strcat@from
  1198  0513  3000               	movlw	0
  1199  0514  00A1               	movwf	strcat@from+1
  1200  0515  3043               	movlw	(low (ventilator_screen@vol| 0))& (0+255)
  1201  0516  118A  21D9  118A   	fcall	_strcat
  1202  0519                     l1724:
  1203                           
  1204                           ;main.c: 144:     LCD_Print(vol);
  1205  0519  3043               	movlw	(low (ventilator_screen@vol| 0))& (0+255)
  1206  051A  118A  220B  118A   	fcall	_LCD_Print
  1207  051D                     l1726:
  1208                           
  1209                           ;main.c: 145:     LCD_Goto(1,2);
  1210  051D  3002               	movlw	2
  1211  051E  1283               	bcf	3,5	;RP0=0, select bank0
  1212  051F  1303               	bcf	3,6	;RP1=0, select bank0
  1213  0520  00BF               	movwf	??_ventilator_screen
  1214  0521  083F               	movf	??_ventilator_screen,w
  1215  0522  00A6               	movwf	LCD_Goto@row
  1216  0523  3001               	movlw	1
  1217  0524  118A  21A9  118A   	fcall	_LCD_Goto
  1218  0527                     l1728:
  1219                           
  1220                           ;main.c: 146:     itoa(vel_number,ventilator_number,10);
  1221  0527  1283               	bcf	3,5	;RP0=0, select bank0
  1222  0528  1303               	bcf	3,6	;RP1=0, select bank0
  1223  0529  083E               	movf	ventilator_screen@ventilator_number+1,w
  1224  052A  00B2               	movwf	itoa@val+1
  1225  052B  083D               	movf	ventilator_screen@ventilator_number,w
  1226  052C  00B1               	movwf	itoa@val
  1227  052D  300A               	movlw	10
  1228  052E  00B3               	movwf	itoa@base
  1229  052F  3000               	movlw	0
  1230  0530  00B4               	movwf	itoa@base+1
  1231  0531  306A               	movlw	(low (ventilator_screen@vel_number| 0))& (0+255)
  1232  0532  118A  2157  118A   	fcall	_itoa
  1233  0535                     l1730:
  1234                           
  1235                           ;main.c: 147:     strcat(vel,vel_number);
  1236  0535  306A               	movlw	(low (ventilator_screen@vel_number| 0))& (0+255)
  1237  0536  1283               	bcf	3,5	;RP0=0, select bank0
  1238  0537  1303               	bcf	3,6	;RP1=0, select bank0
  1239  0538  00A0               	movwf	strcat@from
  1240  0539  3000               	movlw	0
  1241  053A  00A1               	movwf	strcat@from+1
  1242  053B  3053               	movlw	(low (ventilator_screen@vel| 0))& (0+255)
  1243  053C  118A  21D9  118A   	fcall	_strcat
  1244  053F                     l1732:
  1245                           
  1246                           ;main.c: 148:     strcat(vel,": ");
  1247  053F  3006               	movlw	(low ((STR_1-__stringbase)| (0+32768)))& (0+255)
  1248  0540  1283               	bcf	3,5	;RP0=0, select bank0
  1249  0541  1303               	bcf	3,6	;RP1=0, select bank0
  1250  0542  00A0               	movwf	strcat@from
  1251  0543  3080               	movlw	128
  1252  0544  00A1               	movwf	strcat@from+1
  1253  0545  3053               	movlw	(low (ventilator_screen@vel| 0))& (0+255)
  1254  0546  118A  21D9  118A   	fcall	_strcat
  1255  0549                     l1734:
  1256                           
  1257                           ;main.c: 149:     itoa(vel_value,vrm,10);
  1258  0549  1283               	bcf	3,5	;RP0=0, select bank0
  1259  054A  1303               	bcf	3,6	;RP1=0, select bank0
  1260  054B  083C               	movf	ventilator_screen@vrm+1,w
  1261  054C  00B2               	movwf	itoa@val+1
  1262  054D  083B               	movf	ventilator_screen@vrm,w
  1263  054E  00B1               	movwf	itoa@val
  1264  054F  300A               	movlw	10
  1265  0550  00B3               	movwf	itoa@base
  1266  0551  3000               	movlw	0
  1267  0552  00B4               	movwf	itoa@base+1
  1268  0553  3063               	movlw	(low (ventilator_screen@vel_value| 0))& (0+255)
  1269  0554  118A  2157  118A   	fcall	_itoa
  1270  0557                     l1736:
  1271                           
  1272                           ;main.c: 150:     strcat(vel,vel_value);
  1273  0557  3063               	movlw	(low (ventilator_screen@vel_value| 0))& (0+255)
  1274  0558  1283               	bcf	3,5	;RP0=0, select bank0
  1275  0559  1303               	bcf	3,6	;RP1=0, select bank0
  1276  055A  00A0               	movwf	strcat@from
  1277  055B  3000               	movlw	0
  1278  055C  00A1               	movwf	strcat@from+1
  1279  055D  3053               	movlw	(low (ventilator_screen@vel| 0))& (0+255)
  1280  055E  118A  21D9  118A   	fcall	_strcat
  1281  0561                     l1738:
  1282                           
  1283                           ;main.c: 151:     strcat(vel," RPM");
  1284  0561  3001               	movlw	(low ((STR_2-__stringbase)| (0+32768)))& (0+255)
  1285  0562  1283               	bcf	3,5	;RP0=0, select bank0
  1286  0563  1303               	bcf	3,6	;RP1=0, select bank0
  1287  0564  00A0               	movwf	strcat@from
  1288  0565  3080               	movlw	128
  1289  0566  00A1               	movwf	strcat@from+1
  1290  0567  3053               	movlw	(low (ventilator_screen@vel| 0))& (0+255)
  1291  0568  118A  21D9  118A   	fcall	_strcat
  1292  056B                     l1740:
  1293                           
  1294                           ;main.c: 153:     LCD_Print(vel);
  1295  056B  3053               	movlw	(low (ventilator_screen@vel| 0))& (0+255)
  1296  056C  118A  220B  118A   	fcall	_LCD_Print
  1297  056F                     l171:
  1298  056F  0008               	return
  1299  0570                     __end_of_ventilator_screen:
  1300                           
  1301                           	psect	text2
  1302  01D9                     __ptext2:	
  1303 ;; *************** function _strcat *****************
  1304 ;; Defined at:
  1305 ;;		line 8 in file "C:\Program Files\Microchip\xc8\v2.32\pic\sources\c90\common\strcat.c"
  1306 ;; Parameters:    Size  Location     Type
  1307 ;;  to              1    wreg     PTR unsigned char 
  1308 ;;		 -> ventilator_screen@vel(16), ventilator_screen@vol(16), 
  1309 ;;  from            2    0[BANK0 ] PTR const unsigned char 
  1310 ;;		 -> STR_2(5), ventilator_screen@vel_value(4), STR_1(3), ventilator_screen@vel_number(1), 
  1311 ;;		 -> ventilator_screen@vol_value(3), 
  1312 ;; Auto vars:     Size  Location     Type
  1313 ;;  to              1    4[BANK0 ] PTR unsigned char 
  1314 ;;		 -> ventilator_screen@vel(16), ventilator_screen@vol(16), 
  1315 ;;  cp              1    3[BANK0 ] PTR unsigned char 
  1316 ;;		 -> ventilator_screen@vel(16), ventilator_screen@vol(16), 
  1317 ;; Return value:  Size  Location     Type
  1318 ;;                  1    wreg      PTR unsigned char 
  1319 ;; Registers used:
  1320 ;;		wreg, fsr0l, fsr0h, status,2, status,0, btemp+1, pclath
  1321 ;; Tracked objects:
  1322 ;;		On entry : 0/0
  1323 ;;		On exit  : 0/0
  1324 ;;		Unchanged: 0/0
  1325 ;; Data sizes:     COMMON   BANK0   BANK1
  1326 ;;      Params:         0       2       0
  1327 ;;      Locals:         0       2       0
  1328 ;;      Temps:          0       1       0
  1329 ;;      Totals:         0       5       0
  1330 ;;Total ram usage:        5 bytes
  1331 ;; Hardware stack levels used: 2
  1332 ;; This function calls:
  1333 ;;		Nothing
  1334 ;; This function is called by:
  1335 ;;		_ventilator_screen
  1336 ;; This function uses a non-reentrant model
  1337 ;;
  1338                           
  1339                           
  1340                           ;psect for function _strcat
  1341  01D9                     _strcat:
  1342                           
  1343                           ;incstack = 0
  1344                           ; Regs used in _strcat: [wreg-fsr0h+status,2+status,0+btemp+1+pclath]
  1345                           ;strcat@to stored from wreg
  1346  01D9  1283               	bcf	3,5	;RP0=0, select bank0
  1347  01DA  1303               	bcf	3,6	;RP1=0, select bank0
  1348  01DB  00A4               	movwf	strcat@to
  1349  01DC                     l1578:
  1350  01DC  0824               	movf	strcat@to,w
  1351  01DD  00A2               	movwf	??_strcat
  1352  01DE  0822               	movf	??_strcat,w
  1353  01DF  00A3               	movwf	strcat@cp
  1354  01E0  29E5               	goto	l1582
  1355  01E1                     l1580:
  1356  01E1  3001               	movlw	1
  1357  01E2  00A2               	movwf	??_strcat
  1358  01E3  0822               	movf	??_strcat,w
  1359  01E4  07A3               	addwf	strcat@cp,f
  1360  01E5                     l1582:
  1361  01E5  0823               	movf	strcat@cp,w
  1362  01E6  0084               	movwf	4
  1363  01E7  1383               	bcf	3,7	;select IRP bank0
  1364  01E8  0800               	movf	0,w
  1365  01E9  1D03               	btfss	3,2
  1366  01EA  29EC               	goto	u1381
  1367  01EB  29ED               	goto	u1380
  1368  01EC                     u1381:
  1369  01EC  29E1               	goto	l1580
  1370  01ED                     u1380:
  1371  01ED  29F8               	goto	l1588
  1372  01EE                     l1584:
  1373  01EE  3001               	movlw	1
  1374  01EF  00A2               	movwf	??_strcat
  1375  01F0  0822               	movf	??_strcat,w
  1376  01F1  07A3               	addwf	strcat@cp,f
  1377  01F2                     l1586:
  1378  01F2  3001               	movlw	1
  1379  01F3  07A0               	addwf	strcat@from,f
  1380  01F4  1803               	skipnc
  1381  01F5  0AA1               	incf	strcat@from+1,f
  1382  01F6  3000               	movlw	0
  1383  01F7  07A1               	addwf	strcat@from+1,f
  1384  01F8                     l1588:
  1385  01F8  0821               	movf	strcat@from+1,w
  1386  01F9  00FF               	movwf	btemp+1
  1387  01FA  0820               	movf	strcat@from,w
  1388  01FB  0084               	movwf	4
  1389  01FC  118A  2002  118A   	fcall	stringtab
  1390  01FF  00A2               	movwf	??_strcat
  1391  0200  0823               	movf	strcat@cp,w
  1392  0201  0084               	movwf	4
  1393  0202  0822               	movf	??_strcat,w
  1394  0203  1383               	bcf	3,7	;select IRP bank0
  1395  0204  0080               	movwf	0
  1396  0205  0800               	movf	0,w
  1397  0206  1D03               	btfss	3,2
  1398  0207  2A09               	goto	u1391
  1399  0208  2A0A               	goto	u1390
  1400  0209                     u1391:
  1401  0209  29EE               	goto	l1584
  1402  020A                     u1390:
  1403  020A                     l728:
  1404  020A  0008               	return
  1405  020B                     __end_of_strcat:
  1406                           
  1407                           	psect	text3
  1408  0157                     __ptext3:	
  1409 ;; *************** function _itoa *****************
  1410 ;; Defined at:
  1411 ;;		line 4 in file "C:\Program Files\Microchip\xc8\v2.32\pic\sources\c90\common\itoa.c"
  1412 ;; Parameters:    Size  Location     Type
  1413 ;;  buf             1    wreg     PTR unsigned char 
  1414 ;;		 -> ventilator_screen@vel_value(4), ventilator_screen@vel_number(1), ventilator_screen@vol_value(3), 
  1415 ;;  val             2   17[BANK0 ] int 
  1416 ;;  base            2   19[BANK0 ] int 
  1417 ;; Auto vars:     Size  Location     Type
  1418 ;;  buf             1   22[BANK0 ] PTR unsigned char 
  1419 ;;		 -> ventilator_screen@vel_value(4), ventilator_screen@vel_number(1), ventilator_screen@vol_value(3), 
  1420 ;;  cp              1    0        PTR unsigned char 
  1421 ;;		 -> ventilator_screen@vel_value(4), ventilator_screen@vel_number(1), ventilator_screen@vol_value(3), 
  1422 ;; Return value:  Size  Location     Type
  1423 ;;                  1    wreg      PTR unsigned char 
  1424 ;; Registers used:
  1425 ;;		wreg, fsr0l, fsr0h, status,2, status,0, pclath, cstack
  1426 ;; Tracked objects:
  1427 ;;		On entry : 0/0
  1428 ;;		On exit  : 0/0
  1429 ;;		Unchanged: 0/0
  1430 ;; Data sizes:     COMMON   BANK0   BANK1
  1431 ;;      Params:         0       4       0
  1432 ;;      Locals:         0       1       0
  1433 ;;      Temps:          0       1       0
  1434 ;;      Totals:         0       6       0
  1435 ;;Total ram usage:        6 bytes
  1436 ;; Hardware stack levels used: 1
  1437 ;; Hardware stack levels required when called: 2
  1438 ;; This function calls:
  1439 ;;		_utoa
  1440 ;; This function is called by:
  1441 ;;		_ventilator_screen
  1442 ;; This function uses a non-reentrant model
  1443 ;;
  1444                           
  1445                           
  1446                           ;psect for function _itoa
  1447  0157                     _itoa:
  1448                           
  1449                           ;incstack = 0
  1450                           ; Regs used in _itoa: [wreg-fsr0h+status,2+status,0+pclath+cstack]
  1451                           ;itoa@buf stored from wreg
  1452  0157  1283               	bcf	3,5	;RP0=0, select bank0
  1453  0158  1303               	bcf	3,6	;RP1=0, select bank0
  1454  0159  00B6               	movwf	itoa@buf
  1455  015A                     l1564:
  1456  015A                     l1566:
  1457  015A  1FB2               	btfss	itoa@val+1,7
  1458  015B  295D               	goto	u1371
  1459  015C  295E               	goto	u1370
  1460  015D                     u1371:
  1461  015D  296E               	goto	l1574
  1462  015E                     u1370:
  1463  015E                     l1568:
  1464  015E  302D               	movlw	45
  1465  015F  00B5               	movwf	??_itoa
  1466  0160  0836               	movf	itoa@buf,w
  1467  0161  0084               	movwf	4
  1468  0162  0835               	movf	??_itoa,w
  1469  0163  1383               	bcf	3,7	;select IRP bank0
  1470  0164  0080               	movwf	0
  1471  0165                     l1570:
  1472  0165  3001               	movlw	1
  1473  0166  00B5               	movwf	??_itoa
  1474  0167  0835               	movf	??_itoa,w
  1475  0168  07B6               	addwf	itoa@buf,f
  1476  0169                     l1572:
  1477  0169  09B1               	comf	itoa@val,f
  1478  016A  09B2               	comf	itoa@val+1,f
  1479  016B  0AB1               	incf	itoa@val,f
  1480  016C  1903               	skipnz
  1481  016D  0AB2               	incf	itoa@val+1,f
  1482  016E                     l1574:
  1483  016E  0832               	movf	itoa@val+1,w
  1484  016F  00A9               	movwf	utoa@val+1
  1485  0170  0831               	movf	itoa@val,w
  1486  0171  00A8               	movwf	utoa@val
  1487  0172  0834               	movf	itoa@base+1,w
  1488  0173  00AB               	movwf	utoa@base+1
  1489  0174  0833               	movf	itoa@base,w
  1490  0175  00AA               	movwf	utoa@base
  1491  0176  0836               	movf	itoa@buf,w
  1492  0177  118A  23DA  118A   	fcall	_utoa
  1493  017A                     l711:
  1494  017A  0008               	return
  1495  017B                     __end_of_itoa:
  1496                           
  1497                           	psect	text4
  1498  03DA                     __ptext4:	
  1499 ;; *************** function _utoa *****************
  1500 ;; Defined at:
  1501 ;;		line 17 in file "C:\Program Files\Microchip\xc8\v2.32\pic\sources\c90\common\itoa.c"
  1502 ;; Parameters:    Size  Location     Type
  1503 ;;  buf             1    wreg     PTR unsigned char 
  1504 ;;		 -> ventilator_screen@vel_value(4), ventilator_screen@vel_number(1), ventilator_screen@vol_value(3), 
  1505 ;;  val             2    8[BANK0 ] unsigned int 
  1506 ;;  base            2   10[BANK0 ] int 
  1507 ;; Auto vars:     Size  Location     Type
  1508 ;;  buf             1   16[BANK0 ] PTR unsigned char 
  1509 ;;		 -> ventilator_screen@vel_value(4), ventilator_screen@vel_number(1), ventilator_screen@vol_value(3), 
  1510 ;;  v               2   13[BANK0 ] unsigned int 
  1511 ;;  c               1   15[BANK0 ] unsigned char 
  1512 ;; Return value:  Size  Location     Type
  1513 ;;                  1    wreg      PTR unsigned char 
  1514 ;; Registers used:
  1515 ;;		wreg, fsr0l, fsr0h, status,2, status,0, pclath, cstack
  1516 ;; Tracked objects:
  1517 ;;		On entry : 0/0
  1518 ;;		On exit  : 0/0
  1519 ;;		Unchanged: 0/0
  1520 ;; Data sizes:     COMMON   BANK0   BANK1
  1521 ;;      Params:         0       4       0
  1522 ;;      Locals:         0       4       0
  1523 ;;      Temps:          0       1       0
  1524 ;;      Totals:         0       9       0
  1525 ;;Total ram usage:        9 bytes
  1526 ;; Hardware stack levels used: 1
  1527 ;; Hardware stack levels required when called: 1
  1528 ;; This function calls:
  1529 ;;		___lwdiv
  1530 ;;		___lwmod
  1531 ;; This function is called by:
  1532 ;;		_itoa
  1533 ;; This function uses a non-reentrant model
  1534 ;;
  1535                           
  1536                           
  1537                           ;psect for function _utoa
  1538  03DA                     _utoa:
  1539                           
  1540                           ;incstack = 0
  1541                           ; Regs used in _utoa: [wreg-fsr0h+status,2+status,0+pclath+cstack]
  1542                           ;utoa@buf stored from wreg
  1543  03DA  1283               	bcf	3,5	;RP0=0, select bank0
  1544  03DB  1303               	bcf	3,6	;RP1=0, select bank0
  1545  03DC  00B0               	movwf	utoa@buf
  1546  03DD                     l1388:
  1547  03DD  0829               	movf	utoa@val+1,w
  1548  03DE  00AE               	movwf	utoa@v+1
  1549  03DF  0828               	movf	utoa@val,w
  1550  03E0  00AD               	movwf	utoa@v
  1551  03E1                     l1390:
  1552  03E1  082B               	movf	utoa@base+1,w
  1553  03E2  00A1               	movwf	___lwdiv@divisor+1
  1554  03E3  082A               	movf	utoa@base,w
  1555  03E4  00A0               	movwf	___lwdiv@divisor
  1556  03E5  082E               	movf	utoa@v+1,w
  1557  03E6  00A3               	movwf	___lwdiv@dividend+1
  1558  03E7  082D               	movf	utoa@v,w
  1559  03E8  00A2               	movwf	___lwdiv@dividend
  1560  03E9  118A  227C  118A   	fcall	___lwdiv
  1561  03EC  1283               	bcf	3,5	;RP0=0, select bank0
  1562  03ED  1303               	bcf	3,6	;RP1=0, select bank0
  1563  03EE  0821               	movf	?___lwdiv+1,w
  1564  03EF  00AE               	movwf	utoa@v+1
  1565  03F0  0820               	movf	?___lwdiv,w
  1566  03F1  00AD               	movwf	utoa@v
  1567  03F2                     l1392:
  1568  03F2  3001               	movlw	1
  1569  03F3  00AC               	movwf	??_utoa
  1570  03F4  082C               	movf	??_utoa,w
  1571  03F5  07B0               	addwf	utoa@buf,f
  1572  03F6                     l1394:
  1573  03F6  082D               	movf	utoa@v,w
  1574  03F7  042E               	iorwf	utoa@v+1,w
  1575  03F8  1D03               	btfss	3,2
  1576  03F9  2BFB               	goto	u1001
  1577  03FA  2BFC               	goto	u1000
  1578  03FB                     u1001:
  1579  03FB  2BE1               	goto	l1390
  1580  03FC                     u1000:
  1581  03FC                     l1396:
  1582  03FC  0830               	movf	utoa@buf,w
  1583  03FD  0084               	movwf	4
  1584  03FE  1383               	bcf	3,7	;select IRP bank0
  1585  03FF  0180               	clrf	0
  1586  0400                     l1398:
  1587  0400  3001               	movlw	1
  1588  0401  02B0               	subwf	utoa@buf,f
  1589  0402                     l1400:
  1590  0402  082B               	movf	utoa@base+1,w
  1591  0403  00A1               	movwf	___lwmod@divisor+1
  1592  0404  082A               	movf	utoa@base,w
  1593  0405  00A0               	movwf	___lwmod@divisor
  1594  0406  0829               	movf	utoa@val+1,w
  1595  0407  00A3               	movwf	___lwmod@dividend+1
  1596  0408  0828               	movf	utoa@val,w
  1597  0409  00A2               	movwf	___lwmod@dividend
  1598  040A  118A  2240  118A   	fcall	___lwmod
  1599  040D  1283               	bcf	3,5	;RP0=0, select bank0
  1600  040E  1303               	bcf	3,6	;RP1=0, select bank0
  1601  040F  0820               	movf	?___lwmod,w
  1602  0410  00AC               	movwf	??_utoa
  1603  0411  082C               	movf	??_utoa,w
  1604  0412  00AF               	movwf	utoa@c
  1605  0413                     l1402:
  1606  0413  082B               	movf	utoa@base+1,w
  1607  0414  00A1               	movwf	___lwdiv@divisor+1
  1608  0415  082A               	movf	utoa@base,w
  1609  0416  00A0               	movwf	___lwdiv@divisor
  1610  0417  0829               	movf	utoa@val+1,w
  1611  0418  00A3               	movwf	___lwdiv@dividend+1
  1612  0419  0828               	movf	utoa@val,w
  1613  041A  00A2               	movwf	___lwdiv@dividend
  1614  041B  118A  227C  118A   	fcall	___lwdiv
  1615  041E  1283               	bcf	3,5	;RP0=0, select bank0
  1616  041F  1303               	bcf	3,6	;RP1=0, select bank0
  1617  0420  0821               	movf	?___lwdiv+1,w
  1618  0421  00A9               	movwf	utoa@val+1
  1619  0422  0820               	movf	?___lwdiv,w
  1620  0423  00A8               	movwf	utoa@val
  1621  0424                     l1404:
  1622  0424  300A               	movlw	10
  1623  0425  022F               	subwf	utoa@c,w
  1624  0426  1C03               	skipc
  1625  0427  2C29               	goto	u1011
  1626  0428  2C2A               	goto	u1010
  1627  0429                     u1011:
  1628  0429  2C2E               	goto	l717
  1629  042A                     u1010:
  1630  042A                     l1406:
  1631  042A  3007               	movlw	7
  1632  042B  00AC               	movwf	??_utoa
  1633  042C  082C               	movf	??_utoa,w
  1634  042D  07AF               	addwf	utoa@c,f
  1635  042E                     l717:
  1636  042E  3030               	movlw	48
  1637  042F  00AC               	movwf	??_utoa
  1638  0430  082C               	movf	??_utoa,w
  1639  0431  07AF               	addwf	utoa@c,f
  1640  0432                     l1408:
  1641  0432  082F               	movf	utoa@c,w
  1642  0433  00AC               	movwf	??_utoa
  1643  0434  0830               	movf	utoa@buf,w
  1644  0435  0084               	movwf	4
  1645  0436  082C               	movf	??_utoa,w
  1646  0437  1383               	bcf	3,7	;select IRP bank0
  1647  0438  0080               	movwf	0
  1648  0439                     l1410:
  1649  0439  3001               	movlw	1
  1650  043A  02B0               	subwf	utoa@buf,f
  1651  043B                     l1412:
  1652  043B  0828               	movf	utoa@val,w
  1653  043C  0429               	iorwf	utoa@val+1,w
  1654  043D  1D03               	btfss	3,2
  1655  043E  2C40               	goto	u1021
  1656  043F  2C41               	goto	u1020
  1657  0440                     u1021:
  1658  0440  2C02               	goto	l1400
  1659  0441                     u1020:
  1660  0441                     l1414:
  1661                           
  1662                           ;	Return value of _utoa is never used
  1663  0441  3001               	movlw	1
  1664  0442  00AC               	movwf	??_utoa
  1665  0443  082C               	movf	??_utoa,w
  1666  0444  07B0               	addwf	utoa@buf,f
  1667  0445                     l719:
  1668  0445  0008               	return
  1669  0446                     __end_of_utoa:
  1670                           
  1671                           	psect	text5
  1672  0240                     __ptext5:	
  1673 ;; *************** function ___lwmod *****************
  1674 ;; Defined at:
  1675 ;;		line 5 in file "C:\Program Files\Microchip\xc8\v2.32\pic\sources\c90\common\lwmod.c"
  1676 ;; Parameters:    Size  Location     Type
  1677 ;;  divisor         2    0[BANK0 ] unsigned int 
  1678 ;;  dividend        2    2[BANK0 ] unsigned int 
  1679 ;; Auto vars:     Size  Location     Type
  1680 ;;  counter         1    5[BANK0 ] unsigned char 
  1681 ;; Return value:  Size  Location     Type
  1682 ;;                  2    0[BANK0 ] unsigned int 
  1683 ;; Registers used:
  1684 ;;		wreg, status,2, status,0
  1685 ;; Tracked objects:
  1686 ;;		On entry : 0/0
  1687 ;;		On exit  : 0/0
  1688 ;;		Unchanged: 0/0
  1689 ;; Data sizes:     COMMON   BANK0   BANK1
  1690 ;;      Params:         0       4       0
  1691 ;;      Locals:         0       1       0
  1692 ;;      Temps:          0       1       0
  1693 ;;      Totals:         0       6       0
  1694 ;;Total ram usage:        6 bytes
  1695 ;; Hardware stack levels used: 1
  1696 ;; This function calls:
  1697 ;;		Nothing
  1698 ;; This function is called by:
  1699 ;;		_utoa
  1700 ;; This function uses a non-reentrant model
  1701 ;;
  1702                           
  1703                           
  1704                           ;psect for function ___lwmod
  1705  0240                     ___lwmod:
  1706  0240                     l1356:	
  1707                           ;incstack = 0
  1708                           ; Regs used in ___lwmod: [wreg+status,2+status,0]
  1709                           
  1710  0240  1283               	bcf	3,5	;RP0=0, select bank0
  1711  0241  1303               	bcf	3,6	;RP1=0, select bank0
  1712  0242  0820               	movf	___lwmod@divisor,w
  1713  0243  0421               	iorwf	___lwmod@divisor+1,w
  1714  0244  1903               	btfsc	3,2
  1715  0245  2A47               	goto	u911
  1716  0246  2A48               	goto	u910
  1717  0247                     u911:
  1718  0247  2A77               	goto	l1374
  1719  0248                     u910:
  1720  0248                     l1358:
  1721  0248  01A5               	clrf	___lwmod@counter
  1722  0249  0AA5               	incf	___lwmod@counter,f
  1723  024A  2A56               	goto	l1364
  1724  024B                     l1360:
  1725  024B  3001               	movlw	1
  1726  024C                     u925:
  1727  024C  1003               	clrc
  1728  024D  0DA0               	rlf	___lwmod@divisor,f
  1729  024E  0DA1               	rlf	___lwmod@divisor+1,f
  1730  024F  3EFF               	addlw	-1
  1731  0250  1D03               	skipz
  1732  0251  2A4C               	goto	u925
  1733  0252                     l1362:
  1734  0252  3001               	movlw	1
  1735  0253  00A4               	movwf	??___lwmod
  1736  0254  0824               	movf	??___lwmod,w
  1737  0255  07A5               	addwf	___lwmod@counter,f
  1738  0256                     l1364:
  1739  0256  1FA1               	btfss	___lwmod@divisor+1,7
  1740  0257  2A59               	goto	u931
  1741  0258  2A5A               	goto	u930
  1742  0259                     u931:
  1743  0259  2A4B               	goto	l1360
  1744  025A                     u930:
  1745  025A                     l1366:
  1746  025A  0821               	movf	___lwmod@divisor+1,w
  1747  025B  0223               	subwf	___lwmod@dividend+1,w
  1748  025C  1D03               	skipz
  1749  025D  2A60               	goto	u945
  1750  025E  0820               	movf	___lwmod@divisor,w
  1751  025F  0222               	subwf	___lwmod@dividend,w
  1752  0260                     u945:
  1753  0260  1C03               	skipc
  1754  0261  2A63               	goto	u941
  1755  0262  2A64               	goto	u940
  1756  0263                     u941:
  1757  0263  2A6A               	goto	l1370
  1758  0264                     u940:
  1759  0264                     l1368:
  1760  0264  0820               	movf	___lwmod@divisor,w
  1761  0265  02A2               	subwf	___lwmod@dividend,f
  1762  0266  0821               	movf	___lwmod@divisor+1,w
  1763  0267  1C03               	skipc
  1764  0268  03A3               	decf	___lwmod@dividend+1,f
  1765  0269  02A3               	subwf	___lwmod@dividend+1,f
  1766  026A                     l1370:
  1767  026A  3001               	movlw	1
  1768  026B                     u955:
  1769  026B  1003               	clrc
  1770  026C  0CA1               	rrf	___lwmod@divisor+1,f
  1771  026D  0CA0               	rrf	___lwmod@divisor,f
  1772  026E  3EFF               	addlw	-1
  1773  026F  1D03               	skipz
  1774  0270  2A6B               	goto	u955
  1775  0271                     l1372:
  1776  0271  3001               	movlw	1
  1777  0272  02A5               	subwf	___lwmod@counter,f
  1778  0273  1D03               	btfss	3,2
  1779  0274  2A76               	goto	u961
  1780  0275  2A77               	goto	u960
  1781  0276                     u961:
  1782  0276  2A5A               	goto	l1366
  1783  0277                     u960:
  1784  0277                     l1374:
  1785  0277  0823               	movf	___lwmod@dividend+1,w
  1786  0278  00A1               	movwf	?___lwmod+1
  1787  0279  0822               	movf	___lwmod@dividend,w
  1788  027A  00A0               	movwf	?___lwmod
  1789  027B                     l539:
  1790  027B  0008               	return
  1791  027C                     __end_of___lwmod:
  1792                           
  1793                           	psect	text6
  1794  027C                     __ptext6:	
  1795 ;; *************** function ___lwdiv *****************
  1796 ;; Defined at:
  1797 ;;		line 5 in file "C:\Program Files\Microchip\xc8\v2.32\pic\sources\c90\common\lwdiv.c"
  1798 ;; Parameters:    Size  Location     Type
  1799 ;;  divisor         2    0[BANK0 ] unsigned int 
  1800 ;;  dividend        2    2[BANK0 ] unsigned int 
  1801 ;; Auto vars:     Size  Location     Type
  1802 ;;  quotient        2    5[BANK0 ] unsigned int 
  1803 ;;  counter         1    7[BANK0 ] unsigned char 
  1804 ;; Return value:  Size  Location     Type
  1805 ;;                  2    0[BANK0 ] unsigned int 
  1806 ;; Registers used:
  1807 ;;		wreg, status,2, status,0
  1808 ;; Tracked objects:
  1809 ;;		On entry : 0/0
  1810 ;;		On exit  : 0/0
  1811 ;;		Unchanged: 0/0
  1812 ;; Data sizes:     COMMON   BANK0   BANK1
  1813 ;;      Params:         0       4       0
  1814 ;;      Locals:         0       3       0
  1815 ;;      Temps:          0       1       0
  1816 ;;      Totals:         0       8       0
  1817 ;;Total ram usage:        8 bytes
  1818 ;; Hardware stack levels used: 1
  1819 ;; This function calls:
  1820 ;;		Nothing
  1821 ;; This function is called by:
  1822 ;;		_utoa
  1823 ;; This function uses a non-reentrant model
  1824 ;;
  1825                           
  1826                           
  1827                           ;psect for function ___lwdiv
  1828  027C                     ___lwdiv:
  1829  027C                     l1330:	
  1830                           ;incstack = 0
  1831                           ; Regs used in ___lwdiv: [wreg+status,2+status,0]
  1832                           
  1833  027C  1283               	bcf	3,5	;RP0=0, select bank0
  1834  027D  1303               	bcf	3,6	;RP1=0, select bank0
  1835  027E  01A5               	clrf	___lwdiv@quotient
  1836  027F  01A6               	clrf	___lwdiv@quotient+1
  1837  0280                     l1332:
  1838  0280  0820               	movf	___lwdiv@divisor,w
  1839  0281  0421               	iorwf	___lwdiv@divisor+1,w
  1840  0282  1903               	btfsc	3,2
  1841  0283  2A85               	goto	u841
  1842  0284  2A86               	goto	u840
  1843  0285                     u841:
  1844  0285  2ABD               	goto	l1352
  1845  0286                     u840:
  1846  0286                     l1334:
  1847  0286  01A7               	clrf	___lwdiv@counter
  1848  0287  0AA7               	incf	___lwdiv@counter,f
  1849  0288  2A94               	goto	l1340
  1850  0289                     l1336:
  1851  0289  3001               	movlw	1
  1852  028A                     u855:
  1853  028A  1003               	clrc
  1854  028B  0DA0               	rlf	___lwdiv@divisor,f
  1855  028C  0DA1               	rlf	___lwdiv@divisor+1,f
  1856  028D  3EFF               	addlw	-1
  1857  028E  1D03               	skipz
  1858  028F  2A8A               	goto	u855
  1859  0290                     l1338:
  1860  0290  3001               	movlw	1
  1861  0291  00A4               	movwf	??___lwdiv
  1862  0292  0824               	movf	??___lwdiv,w
  1863  0293  07A7               	addwf	___lwdiv@counter,f
  1864  0294                     l1340:
  1865  0294  1FA1               	btfss	___lwdiv@divisor+1,7
  1866  0295  2A97               	goto	u861
  1867  0296  2A98               	goto	u860
  1868  0297                     u861:
  1869  0297  2A89               	goto	l1336
  1870  0298                     u860:
  1871  0298                     l1342:
  1872  0298  3001               	movlw	1
  1873  0299                     u875:
  1874  0299  1003               	clrc
  1875  029A  0DA5               	rlf	___lwdiv@quotient,f
  1876  029B  0DA6               	rlf	___lwdiv@quotient+1,f
  1877  029C  3EFF               	addlw	-1
  1878  029D  1D03               	skipz
  1879  029E  2A99               	goto	u875
  1880  029F  0821               	movf	___lwdiv@divisor+1,w
  1881  02A0  0223               	subwf	___lwdiv@dividend+1,w
  1882  02A1  1D03               	skipz
  1883  02A2  2AA5               	goto	u885
  1884  02A3  0820               	movf	___lwdiv@divisor,w
  1885  02A4  0222               	subwf	___lwdiv@dividend,w
  1886  02A5                     u885:
  1887  02A5  1C03               	skipc
  1888  02A6  2AA8               	goto	u881
  1889  02A7  2AA9               	goto	u880
  1890  02A8                     u881:
  1891  02A8  2AB0               	goto	l1348
  1892  02A9                     u880:
  1893  02A9                     l1344:
  1894  02A9  0820               	movf	___lwdiv@divisor,w
  1895  02AA  02A2               	subwf	___lwdiv@dividend,f
  1896  02AB  0821               	movf	___lwdiv@divisor+1,w
  1897  02AC  1C03               	skipc
  1898  02AD  03A3               	decf	___lwdiv@dividend+1,f
  1899  02AE  02A3               	subwf	___lwdiv@dividend+1,f
  1900  02AF                     l1346:
  1901  02AF  1425               	bsf	___lwdiv@quotient,0
  1902  02B0                     l1348:
  1903  02B0  3001               	movlw	1
  1904  02B1                     u895:
  1905  02B1  1003               	clrc
  1906  02B2  0CA1               	rrf	___lwdiv@divisor+1,f
  1907  02B3  0CA0               	rrf	___lwdiv@divisor,f
  1908  02B4  3EFF               	addlw	-1
  1909  02B5  1D03               	skipz
  1910  02B6  2AB1               	goto	u895
  1911  02B7                     l1350:
  1912  02B7  3001               	movlw	1
  1913  02B8  02A7               	subwf	___lwdiv@counter,f
  1914  02B9  1D03               	btfss	3,2
  1915  02BA  2ABC               	goto	u901
  1916  02BB  2ABD               	goto	u900
  1917  02BC                     u901:
  1918  02BC  2A98               	goto	l1342
  1919  02BD                     u900:
  1920  02BD                     l1352:
  1921  02BD  0826               	movf	___lwdiv@quotient+1,w
  1922  02BE  00A1               	movwf	?___lwdiv+1
  1923  02BF  0825               	movf	___lwdiv@quotient,w
  1924  02C0  00A0               	movwf	?___lwdiv
  1925  02C1                     l529:
  1926  02C1  0008               	return
  1927  02C2                     __end_of___lwdiv:
  1928                           
  1929                           	psect	text7
  1930  0446                     __ptext7:	
  1931 ;; *************** function ___fltol *****************
  1932 ;; Defined at:
  1933 ;;		line 43 in file "C:\Program Files\Microchip\xc8\v2.32\pic\sources\c90\common\fltol.c"
  1934 ;; Parameters:    Size  Location     Type
  1935 ;;  f1              4    0[BANK0 ] unsigned int 
  1936 ;; Auto vars:     Size  Location     Type
  1937 ;;  exp1            1   10[BANK0 ] unsigned char 
  1938 ;;  sign1           1    9[BANK0 ] unsigned char 
  1939 ;; Return value:  Size  Location     Type
  1940 ;;                  4    0[BANK0 ] long 
  1941 ;; Registers used:
  1942 ;;		wreg, status,2, status,0
  1943 ;; Tracked objects:
  1944 ;;		On entry : 0/0
  1945 ;;		On exit  : 0/0
  1946 ;;		Unchanged: 0/0
  1947 ;; Data sizes:     COMMON   BANK0   BANK1
  1948 ;;      Params:         0       4       0
  1949 ;;      Locals:         0       2       0
  1950 ;;      Temps:          0       5       0
  1951 ;;      Totals:         0      11       0
  1952 ;;Total ram usage:       11 bytes
  1953 ;; Hardware stack levels used: 1
  1954 ;; This function calls:
  1955 ;;		Nothing
  1956 ;; This function is called by:
  1957 ;;		_ventilator_screen
  1958 ;; This function uses a non-reentrant model
  1959 ;;
  1960                           
  1961                           
  1962                           ;psect for function ___fltol
  1963  0446                     ___fltol:
  1964  0446                     l1590:	
  1965                           ;incstack = 0
  1966                           ; Regs used in ___fltol: [wreg+status,2+status,0]
  1967                           
  1968  0446  1003               	clrc
  1969  0447  1283               	bcf	3,5	;RP0=0, select bank0
  1970  0448  1303               	bcf	3,6	;RP1=0, select bank0
  1971  0449  0D22               	rlf	___fltol@f1+2,w
  1972  044A  0D23               	rlf	___fltol@f1+3,w
  1973  044B  00A4               	movwf	??___fltol
  1974  044C  0824               	movf	??___fltol,w
  1975  044D  00AA               	movwf	___fltol@exp1
  1976  044E  082A               	movf	___fltol@exp1,w
  1977  044F  1D03               	btfss	3,2
  1978  0450  2C52               	goto	u1401
  1979  0451  2C53               	goto	u1400
  1980  0452                     u1401:
  1981  0452  2C5C               	goto	l1596
  1982  0453                     u1400:
  1983  0453                     l1592:
  1984  0453  3000               	movlw	0
  1985  0454  00A3               	movwf	?___fltol+3
  1986  0455  3000               	movlw	0
  1987  0456  00A2               	movwf	?___fltol+2
  1988  0457  3000               	movlw	0
  1989  0458  00A1               	movwf	?___fltol+1
  1990  0459  3000               	movlw	0
  1991  045A  00A0               	movwf	?___fltol
  1992  045B  2CC1               	goto	l443
  1993  045C                     l1596:
  1994  045C  0820               	movf	___fltol@f1,w
  1995  045D  00A4               	movwf	??___fltol
  1996  045E  0821               	movf	___fltol@f1+1,w
  1997  045F  00A5               	movwf	??___fltol+1
  1998  0460  0822               	movf	___fltol@f1+2,w
  1999  0461  00A6               	movwf	??___fltol+2
  2000  0462  0823               	movf	___fltol@f1+3,w
  2001  0463  00A7               	movwf	??___fltol+3
  2002  0464  301F               	movlw	31
  2003  0465                     u1415:
  2004  0465  1003               	clrc
  2005  0466  0CA7               	rrf	??___fltol+3,f
  2006  0467  0CA6               	rrf	??___fltol+2,f
  2007  0468  0CA5               	rrf	??___fltol+1,f
  2008  0469  0CA4               	rrf	??___fltol,f
  2009  046A                     u1410:
  2010  046A  3EFF               	addlw	-1
  2011  046B  1D03               	skipz
  2012  046C  2C65               	goto	u1415
  2013  046D  0824               	movf	??___fltol,w
  2014  046E  00A8               	movwf	??___fltol+4
  2015  046F  0828               	movf	??___fltol+4,w
  2016  0470  00A9               	movwf	___fltol@sign1
  2017  0471                     l1598:
  2018  0471  17A2               	bsf	___fltol@f1+2,7
  2019  0472                     l1600:
  2020  0472  30FF               	movlw	255
  2021  0473  05A0               	andwf	___fltol@f1,f
  2022  0474  30FF               	movlw	255
  2023  0475  05A1               	andwf	___fltol@f1+1,f
  2024  0476  30FF               	movlw	255
  2025  0477  05A2               	andwf	___fltol@f1+2,f
  2026  0478  3000               	movlw	0
  2027  0479  05A3               	andwf	___fltol@f1+3,f
  2028  047A                     l1602:
  2029  047A  3096               	movlw	150
  2030  047B  02AA               	subwf	___fltol@exp1,f
  2031  047C                     l1604:
  2032  047C  1FAA               	btfss	___fltol@exp1,7
  2033  047D  2C7F               	goto	u1421
  2034  047E  2C80               	goto	u1420
  2035  047F                     u1421:
  2036  047F  2C9A               	goto	l1614
  2037  0480                     u1420:
  2038  0480                     l1606:
  2039  0480  082A               	movf	___fltol@exp1,w
  2040  0481  3A80               	xorlw	128
  2041  0482  3E97               	addlw	151
  2042  0483  1803               	skipnc
  2043  0484  2C86               	goto	u1431
  2044  0485  2C87               	goto	u1430
  2045  0486                     u1431:
  2046  0486  2C88               	goto	l1612
  2047  0487                     u1430:
  2048  0487  2C53               	goto	l1592
  2049  0488                     l1612:
  2050  0488  3001               	movlw	1
  2051  0489                     u1445:
  2052  0489  1003               	clrc
  2053  048A  0CA3               	rrf	___fltol@f1+3,f
  2054  048B  0CA2               	rrf	___fltol@f1+2,f
  2055  048C  0CA1               	rrf	___fltol@f1+1,f
  2056  048D  0CA0               	rrf	___fltol@f1,f
  2057  048E  3EFF               	addlw	-1
  2058  048F  1D03               	skipz
  2059  0490  2C89               	goto	u1445
  2060  0491  3001               	movlw	1
  2061  0492  00A4               	movwf	??___fltol
  2062  0493  0824               	movf	??___fltol,w
  2063  0494  07AA               	addwf	___fltol@exp1,f
  2064  0495  1D03               	btfss	3,2
  2065  0496  2C98               	goto	u1451
  2066  0497  2C99               	goto	u1450
  2067  0498                     u1451:
  2068  0498  2C88               	goto	l1612
  2069  0499                     u1450:
  2070  0499  2CB1               	goto	l1622
  2071  049A                     l1614:
  2072  049A  3020               	movlw	32
  2073  049B  022A               	subwf	___fltol@exp1,w
  2074  049C  1C03               	skipc
  2075  049D  2C9F               	goto	u1461
  2076  049E  2CA0               	goto	u1460
  2077  049F                     u1461:
  2078  049F  2CAC               	goto	l450
  2079  04A0                     u1460:
  2080  04A0  2C53               	goto	l1592
  2081  04A1                     l1620:
  2082  04A1  3001               	movlw	1
  2083  04A2  00A4               	movwf	??___fltol
  2084  04A3                     u1475:
  2085  04A3  1003               	clrc
  2086  04A4  0DA0               	rlf	___fltol@f1,f
  2087  04A5  0DA1               	rlf	___fltol@f1+1,f
  2088  04A6  0DA2               	rlf	___fltol@f1+2,f
  2089  04A7  0DA3               	rlf	___fltol@f1+3,f
  2090  04A8  0BA4               	decfsz	??___fltol,f
  2091  04A9  2CA3               	goto	u1475
  2092  04AA  3001               	movlw	1
  2093  04AB  02AA               	subwf	___fltol@exp1,f
  2094  04AC                     l450:
  2095  04AC  082A               	movf	___fltol@exp1,w
  2096  04AD  1D03               	btfss	3,2
  2097  04AE  2CB0               	goto	u1481
  2098  04AF  2CB1               	goto	u1480
  2099  04B0                     u1481:
  2100  04B0  2CA1               	goto	l1620
  2101  04B1                     u1480:
  2102  04B1                     l1622:
  2103  04B1  0829               	movf	___fltol@sign1,w
  2104  04B2  1903               	btfsc	3,2
  2105  04B3  2CB5               	goto	u1491
  2106  04B4  2CB6               	goto	u1490
  2107  04B5                     u1491:
  2108  04B5  2CC1               	goto	l453
  2109  04B6                     u1490:
  2110  04B6                     l1624:
  2111  04B6  09A0               	comf	___fltol@f1,f
  2112  04B7  09A1               	comf	___fltol@f1+1,f
  2113  04B8  09A2               	comf	___fltol@f1+2,f
  2114  04B9  09A3               	comf	___fltol@f1+3,f
  2115  04BA  0AA0               	incf	___fltol@f1,f
  2116  04BB  1903               	skipnz
  2117  04BC  0AA1               	incf	___fltol@f1+1,f
  2118  04BD  1903               	skipnz
  2119  04BE  0AA2               	incf	___fltol@f1+2,f
  2120  04BF  1903               	skipnz
  2121  04C0  0AA3               	incf	___fltol@f1+3,f
  2122  04C1                     l453:
  2123  04C1                     l443:
  2124  04C1  0008               	return
  2125  04C2                     __end_of___fltol:
  2126                           
  2127                           	psect	text8
  2128  0136                     __ptext8:	
  2129 ;; *************** function _keypad_getkey *****************
  2130 ;; Defined at:
  2131 ;;		line 91 in file "./kbd.h"
  2132 ;; Parameters:    Size  Location     Type
  2133 ;;		None
  2134 ;; Auto vars:     Size  Location     Type
  2135 ;;  key             1    2[BANK0 ] unsigned char 
  2136 ;; Return value:  Size  Location     Type
  2137 ;;                  1    wreg      unsigned char 
  2138 ;; Registers used:
  2139 ;;		wreg, status,2, status,0, pclath, cstack
  2140 ;; Tracked objects:
  2141 ;;		On entry : 0/0
  2142 ;;		On exit  : 0/0
  2143 ;;		Unchanged: 0/0
  2144 ;; Data sizes:     COMMON   BANK0   BANK1
  2145 ;;      Params:         0       0       0
  2146 ;;      Locals:         0       1       0
  2147 ;;      Temps:          0       1       0
  2148 ;;      Totals:         0       2       0
  2149 ;;Total ram usage:        2 bytes
  2150 ;; Hardware stack levels used: 1
  2151 ;; Hardware stack levels required when called: 1
  2152 ;; This function calls:
  2153 ;;		_keypad_readkey
  2154 ;; This function is called by:
  2155 ;;		_main
  2156 ;; This function uses a non-reentrant model
  2157 ;;
  2158                           
  2159                           
  2160                           ;psect for function _keypad_getkey
  2161  0136                     _keypad_getkey:
  2162  0136                     l1658:	
  2163                           ;incstack = 0
  2164                           ; Regs used in _keypad_getkey: [wreg+status,2+status,0+pclath+cstack]
  2165                           
  2166                           
  2167                           ;./kbd.h: 93:  unsigned char key = 'x';
  2168  0136  3078               	movlw	120
  2169  0137  1283               	bcf	3,5	;RP0=0, select bank0
  2170  0138  1303               	bcf	3,6	;RP1=0, select bank0
  2171  0139  00A1               	movwf	??_keypad_getkey
  2172  013A  0821               	movf	??_keypad_getkey,w
  2173  013B  00A2               	movwf	keypad_getkey@key
  2174                           
  2175                           ;./kbd.h: 96:  while(key == 'x')
  2176  013C  2945               	goto	l1662
  2177  013D                     l1660:
  2178                           
  2179                           ;./kbd.h: 97:   key = keypad_readkey();
  2180  013D  118A  2701  118A   	fcall	_keypad_readkey
  2181  0140  1283               	bcf	3,5	;RP0=0, select bank0
  2182  0141  1303               	bcf	3,6	;RP1=0, select bank0
  2183  0142  00A1               	movwf	??_keypad_getkey
  2184  0143  0821               	movf	??_keypad_getkey,w
  2185  0144  00A2               	movwf	keypad_getkey@key
  2186  0145                     l1662:
  2187                           
  2188                           ;./kbd.h: 96:  while(key == 'x')
  2189  0145  3078               	movlw	120
  2190  0146  0622               	xorwf	keypad_getkey@key,w
  2191  0147  1903               	btfsc	3,2
  2192  0148  294A               	goto	u1511
  2193  0149  294B               	goto	u1510
  2194  014A                     u1511:
  2195  014A  293D               	goto	l1660
  2196  014B                     u1510:
  2197  014B                     l1664:
  2198  014B  118A  2701  118A   	fcall	_keypad_readkey
  2199  014E  3A78               	xorlw	120
  2200  014F  1D03               	skipz
  2201  0150  2952               	goto	u1521
  2202  0151  2953               	goto	u1520
  2203  0152                     u1521:
  2204  0152  294B               	goto	l1664
  2205  0153                     u1520:
  2206  0153                     l1666:
  2207                           
  2208                           ;./kbd.h: 102:  return key;
  2209  0153  1283               	bcf	3,5	;RP0=0, select bank0
  2210  0154  1303               	bcf	3,6	;RP1=0, select bank0
  2211  0155  0822               	movf	keypad_getkey@key,w
  2212  0156                     l125:
  2213  0156  0008               	return
  2214  0157                     __end_of_keypad_getkey:
  2215                           
  2216                           	psect	text9
  2217  0701                     __ptext9:	
  2218 ;; *************** function _keypad_readkey *****************
  2219 ;; Defined at:
  2220 ;;		line 36 in file "./kbd.h"
  2221 ;; Parameters:    Size  Location     Type
  2222 ;;		None
  2223 ;; Auto vars:     Size  Location     Type
  2224 ;;		None
  2225 ;; Return value:  Size  Location     Type
  2226 ;;                  1    wreg      unsigned char 
  2227 ;; Registers used:
  2228 ;;		wreg
  2229 ;; Tracked objects:
  2230 ;;		On entry : 0/0
  2231 ;;		On exit  : 0/0
  2232 ;;		Unchanged: 0/0
  2233 ;; Data sizes:     COMMON   BANK0   BANK1
  2234 ;;      Params:         0       0       0
  2235 ;;      Locals:         0       0       0
  2236 ;;      Temps:          0       1       0
  2237 ;;      Totals:         0       1       0
  2238 ;;Total ram usage:        1 bytes
  2239 ;; Hardware stack levels used: 1
  2240 ;; This function calls:
  2241 ;;		Nothing
  2242 ;; This function is called by:
  2243 ;;		_keypad_getkey
  2244 ;; This function uses a non-reentrant model
  2245 ;;
  2246                           
  2247                           
  2248                           ;psect for function _keypad_readkey
  2249  0701                     _keypad_readkey:
  2250  0701                     l1446:	
  2251                           ;incstack = 0
  2252                           ; Regs used in _keypad_readkey: [wreg]
  2253                           
  2254                           
  2255                           ;./kbd.h: 38:     RC1 = 1;
  2256  0701  1283               	bcf	3,5	;RP0=0, select bank0
  2257  0702  1303               	bcf	3,6	;RP1=0, select bank0
  2258  0703  1487               	bsf	7,1	;volatile
  2259                           
  2260                           ;./kbd.h: 39:     RC0 = 0;
  2261  0704  1007               	bcf	7,0	;volatile
  2262                           
  2263                           ;./kbd.h: 40:     RA5 = 0;
  2264  0705  1285               	bcf	5,5	;volatile
  2265                           
  2266                           ;./kbd.h: 41:     RA4 = 0;
  2267  0706  1205               	bcf	5,4	;volatile
  2268  0707                     l1448:
  2269                           
  2270                           ;./kbd.h: 42:     _delay((unsigned long)((30)*(32000000/4000000.0)));
  2271  0707  304F               	movlw	79
  2272  0708  1283               	bcf	3,5	;RP0=0, select bank0
  2273  0709  1303               	bcf	3,6	;RP1=0, select bank0
  2274  070A  00A0               	movwf	??_keypad_readkey
  2275  070B                     u1647:
  2276  070B  0BA0               	decfsz	??_keypad_readkey,f
  2277  070C  2F0B               	goto	u1647
  2278  070D  0000               	nop
  2279  070E                     l1450:
  2280                           
  2281                           ;./kbd.h: 44:     if(RC1==1 && RC0==0 && RA5==0 && RA4==0) {
  2282  070E  1283               	bcf	3,5	;RP0=0, select bank0
  2283  070F  1303               	bcf	3,6	;RP1=0, select bank0
  2284  0710  1C87               	btfss	7,1	;volatile
  2285  0711  2F13               	goto	u1051
  2286  0712  2F14               	goto	u1050
  2287  0713                     u1051:
  2288  0713  2F38               	goto	l96
  2289  0714                     u1050:
  2290  0714                     l1452:
  2291  0714  1807               	btfsc	7,0	;volatile
  2292  0715  2F17               	goto	u1061
  2293  0716  2F18               	goto	u1060
  2294  0717                     u1061:
  2295  0717  2F38               	goto	l96
  2296  0718                     u1060:
  2297  0718                     l1454:
  2298  0718  1A85               	btfsc	5,5	;volatile
  2299  0719  2F1B               	goto	u1071
  2300  071A  2F1C               	goto	u1070
  2301  071B                     u1071:
  2302  071B  2F38               	goto	l96
  2303  071C                     u1070:
  2304  071C                     l1456:
  2305  071C  1A05               	btfsc	5,4	;volatile
  2306  071D  2F1F               	goto	u1081
  2307  071E  2F20               	goto	u1080
  2308  071F                     u1081:
  2309  071F  2F38               	goto	l96
  2310  0720                     u1080:
  2311  0720                     l1458:
  2312                           
  2313                           ;./kbd.h: 45:         if (RA0 == 1) return 'Z';
  2314  0720  1C05               	btfss	5,0	;volatile
  2315  0721  2F23               	goto	u1091
  2316  0722  2F24               	goto	u1090
  2317  0723                     u1091:
  2318  0723  2F26               	goto	l97
  2319  0724                     u1090:
  2320  0724                     l1460:
  2321  0724  305A               	movlw	90
  2322  0725  2FD8               	goto	l98
  2323  0726                     l97:
  2324                           
  2325                           ;./kbd.h: 46:         if (RA1 == 1) return '0';
  2326  0726  1C85               	btfss	5,1	;volatile
  2327  0727  2F29               	goto	u1101
  2328  0728  2F2A               	goto	u1100
  2329  0729                     u1101:
  2330  0729  2F2C               	goto	l99
  2331  072A                     u1100:
  2332  072A                     l1464:
  2333  072A  3030               	movlw	48
  2334  072B  2FD8               	goto	l98
  2335  072C                     l99:
  2336                           
  2337                           ;./kbd.h: 47:         if (RA2 == 1) return '=';
  2338  072C  1D05               	btfss	5,2	;volatile
  2339  072D  2F2F               	goto	u1111
  2340  072E  2F30               	goto	u1110
  2341  072F                     u1111:
  2342  072F  2F32               	goto	l100
  2343  0730                     u1110:
  2344  0730                     l1468:
  2345  0730  303D               	movlw	61
  2346  0731  2FD8               	goto	l98
  2347  0732                     l100:
  2348                           
  2349                           ;./kbd.h: 48:         if (RA3 == 1) return '+';
  2350  0732  1D85               	btfss	5,3	;volatile
  2351  0733  2F35               	goto	u1121
  2352  0734  2F36               	goto	u1120
  2353  0735                     u1121:
  2354  0735  2F38               	goto	l96
  2355  0736                     u1120:
  2356  0736                     l1472:
  2357  0736  302B               	movlw	43
  2358  0737  2FD8               	goto	l98
  2359  0738                     l96:	
  2360                           ;./kbd.h: 49:     }
  2361                           
  2362                           
  2363                           ;./kbd.h: 50:     RC1 = 0;
  2364  0738  1087               	bcf	7,1	;volatile
  2365                           
  2366                           ;./kbd.h: 51:     RC0 = 1;
  2367  0739  1407               	bsf	7,0	;volatile
  2368                           
  2369                           ;./kbd.h: 52:     RA5 = 0;
  2370  073A  1285               	bcf	5,5	;volatile
  2371                           
  2372                           ;./kbd.h: 53:     RA4 = 0;
  2373  073B  1205               	bcf	5,4	;volatile
  2374  073C                     l1476:
  2375                           
  2376                           ;./kbd.h: 54:     _delay((unsigned long)((30)*(32000000/4000000.0)));
  2377  073C  304F               	movlw	79
  2378  073D  1283               	bcf	3,5	;RP0=0, select bank0
  2379  073E  1303               	bcf	3,6	;RP1=0, select bank0
  2380  073F  00A0               	movwf	??_keypad_readkey
  2381  0740                     u1657:
  2382  0740  0BA0               	decfsz	??_keypad_readkey,f
  2383  0741  2F40               	goto	u1657
  2384  0742  0000               	nop
  2385  0743                     l1478:
  2386                           
  2387                           ;./kbd.h: 56:     if(RC1==0 && RC0==1 && RA5==0 && RA4==0) {
  2388  0743  1283               	bcf	3,5	;RP0=0, select bank0
  2389  0744  1303               	bcf	3,6	;RP1=0, select bank0
  2390  0745  1887               	btfsc	7,1	;volatile
  2391  0746  2F48               	goto	u1131
  2392  0747  2F49               	goto	u1130
  2393  0748                     u1131:
  2394  0748  2F6D               	goto	l102
  2395  0749                     u1130:
  2396  0749                     l1480:
  2397  0749  1C07               	btfss	7,0	;volatile
  2398  074A  2F4C               	goto	u1141
  2399  074B  2F4D               	goto	u1140
  2400  074C                     u1141:
  2401  074C  2F6D               	goto	l102
  2402  074D                     u1140:
  2403  074D                     l1482:
  2404  074D  1A85               	btfsc	5,5	;volatile
  2405  074E  2F50               	goto	u1151
  2406  074F  2F51               	goto	u1150
  2407  0750                     u1151:
  2408  0750  2F6D               	goto	l102
  2409  0751                     u1150:
  2410  0751                     l1484:
  2411  0751  1A05               	btfsc	5,4	;volatile
  2412  0752  2F54               	goto	u1161
  2413  0753  2F55               	goto	u1160
  2414  0754                     u1161:
  2415  0754  2F6D               	goto	l102
  2416  0755                     u1160:
  2417  0755                     l1486:
  2418                           
  2419                           ;./kbd.h: 57:         if (RA0 == 1) return '1';
  2420  0755  1C05               	btfss	5,0	;volatile
  2421  0756  2F58               	goto	u1171
  2422  0757  2F59               	goto	u1170
  2423  0758                     u1171:
  2424  0758  2F5B               	goto	l103
  2425  0759                     u1170:
  2426  0759                     l1488:
  2427  0759  3031               	movlw	49
  2428  075A  2FD8               	goto	l98
  2429  075B                     l103:
  2430                           
  2431                           ;./kbd.h: 58:         if (RA1 == 1) return '2';
  2432  075B  1C85               	btfss	5,1	;volatile
  2433  075C  2F5E               	goto	u1181
  2434  075D  2F5F               	goto	u1180
  2435  075E                     u1181:
  2436  075E  2F61               	goto	l104
  2437  075F                     u1180:
  2438  075F                     l1492:
  2439  075F  3032               	movlw	50
  2440  0760  2FD8               	goto	l98
  2441  0761                     l104:
  2442                           
  2443                           ;./kbd.h: 59:         if (RA2 == 1) return '3';
  2444  0761  1D05               	btfss	5,2	;volatile
  2445  0762  2F64               	goto	u1191
  2446  0763  2F65               	goto	u1190
  2447  0764                     u1191:
  2448  0764  2F67               	goto	l105
  2449  0765                     u1190:
  2450  0765                     l1496:
  2451  0765  3033               	movlw	51
  2452  0766  2FD8               	goto	l98
  2453  0767                     l105:
  2454                           
  2455                           ;./kbd.h: 60:         if (RA3 == 1) return '.';
  2456  0767  1D85               	btfss	5,3	;volatile
  2457  0768  2F6A               	goto	u1201
  2458  0769  2F6B               	goto	u1200
  2459  076A                     u1201:
  2460  076A  2F6D               	goto	l102
  2461  076B                     u1200:
  2462  076B                     l1500:
  2463  076B  302E               	movlw	46
  2464  076C  2FD8               	goto	l98
  2465  076D                     l102:	
  2466                           ;./kbd.h: 61:     }
  2467                           
  2468                           
  2469                           ;./kbd.h: 63:     RC1 = 0;
  2470  076D  1087               	bcf	7,1	;volatile
  2471                           
  2472                           ;./kbd.h: 64:     RC0 = 0;
  2473  076E  1007               	bcf	7,0	;volatile
  2474                           
  2475                           ;./kbd.h: 65:     RA5 = 1;
  2476  076F  1685               	bsf	5,5	;volatile
  2477                           
  2478                           ;./kbd.h: 66:     RA4 = 0;
  2479  0770  1205               	bcf	5,4	;volatile
  2480  0771                     l1504:
  2481                           
  2482                           ;./kbd.h: 67:     _delay((unsigned long)((30)*(32000000/4000000.0)));
  2483  0771  304F               	movlw	79
  2484  0772  1283               	bcf	3,5	;RP0=0, select bank0
  2485  0773  1303               	bcf	3,6	;RP1=0, select bank0
  2486  0774  00A0               	movwf	??_keypad_readkey
  2487  0775                     u1667:
  2488  0775  0BA0               	decfsz	??_keypad_readkey,f
  2489  0776  2F75               	goto	u1667
  2490  0777  0000               	nop
  2491  0778                     l1506:
  2492                           
  2493                           ;./kbd.h: 69:     if(RC1==0 && RC0==0 && RA5==1 && RA4==0) {
  2494  0778  1283               	bcf	3,5	;RP0=0, select bank0
  2495  0779  1303               	bcf	3,6	;RP1=0, select bank0
  2496  077A  1887               	btfsc	7,1	;volatile
  2497  077B  2F7D               	goto	u1211
  2498  077C  2F7E               	goto	u1210
  2499  077D                     u1211:
  2500  077D  2FA2               	goto	l107
  2501  077E                     u1210:
  2502  077E                     l1508:
  2503  077E  1807               	btfsc	7,0	;volatile
  2504  077F  2F81               	goto	u1221
  2505  0780  2F82               	goto	u1220
  2506  0781                     u1221:
  2507  0781  2FA2               	goto	l107
  2508  0782                     u1220:
  2509  0782                     l1510:
  2510  0782  1E85               	btfss	5,5	;volatile
  2511  0783  2F85               	goto	u1231
  2512  0784  2F86               	goto	u1230
  2513  0785                     u1231:
  2514  0785  2FA2               	goto	l107
  2515  0786                     u1230:
  2516  0786                     l1512:
  2517  0786  1A05               	btfsc	5,4	;volatile
  2518  0787  2F89               	goto	u1241
  2519  0788  2F8A               	goto	u1240
  2520  0789                     u1241:
  2521  0789  2FA2               	goto	l107
  2522  078A                     u1240:
  2523  078A                     l1514:
  2524                           
  2525                           ;./kbd.h: 70:         if (RA0 == 1) return '4';
  2526  078A  1C05               	btfss	5,0	;volatile
  2527  078B  2F8D               	goto	u1251
  2528  078C  2F8E               	goto	u1250
  2529  078D                     u1251:
  2530  078D  2F90               	goto	l108
  2531  078E                     u1250:
  2532  078E                     l1516:
  2533  078E  3034               	movlw	52
  2534  078F  2FD8               	goto	l98
  2535  0790                     l108:
  2536                           
  2537                           ;./kbd.h: 71:         if (RA1 == 1) return '5';
  2538  0790  1C85               	btfss	5,1	;volatile
  2539  0791  2F93               	goto	u1261
  2540  0792  2F94               	goto	u1260
  2541  0793                     u1261:
  2542  0793  2F96               	goto	l109
  2543  0794                     u1260:
  2544  0794                     l1520:
  2545  0794  3035               	movlw	53
  2546  0795  2FD8               	goto	l98
  2547  0796                     l109:
  2548                           
  2549                           ;./kbd.h: 72:         if (RA2 == 1) return '6';
  2550  0796  1D05               	btfss	5,2	;volatile
  2551  0797  2F99               	goto	u1271
  2552  0798  2F9A               	goto	u1270
  2553  0799                     u1271:
  2554  0799  2F9C               	goto	l110
  2555  079A                     u1270:
  2556  079A                     l1524:
  2557  079A  3036               	movlw	54
  2558  079B  2FD8               	goto	l98
  2559  079C                     l110:
  2560                           
  2561                           ;./kbd.h: 73:         if (RA3 == 1) return '*';
  2562  079C  1D85               	btfss	5,3	;volatile
  2563  079D  2F9F               	goto	u1281
  2564  079E  2FA0               	goto	u1280
  2565  079F                     u1281:
  2566  079F  2FA2               	goto	l107
  2567  07A0                     u1280:
  2568  07A0                     l1528:
  2569  07A0  302A               	movlw	42
  2570  07A1  2FD8               	goto	l98
  2571  07A2                     l107:	
  2572                           ;./kbd.h: 74:     }
  2573                           
  2574                           
  2575                           ;./kbd.h: 76:     RC1 = 0;
  2576  07A2  1087               	bcf	7,1	;volatile
  2577                           
  2578                           ;./kbd.h: 77:     RC0 = 0;
  2579  07A3  1007               	bcf	7,0	;volatile
  2580                           
  2581                           ;./kbd.h: 78:     RA5 = 0;
  2582  07A4  1285               	bcf	5,5	;volatile
  2583                           
  2584                           ;./kbd.h: 79:     RA4 = 1;
  2585  07A5  1605               	bsf	5,4	;volatile
  2586  07A6                     l1532:
  2587                           
  2588                           ;./kbd.h: 80:     _delay((unsigned long)((30)*(32000000/4000000.0)));
  2589  07A6  304F               	movlw	79
  2590  07A7  1283               	bcf	3,5	;RP0=0, select bank0
  2591  07A8  1303               	bcf	3,6	;RP1=0, select bank0
  2592  07A9  00A0               	movwf	??_keypad_readkey
  2593  07AA                     u1677:
  2594  07AA  0BA0               	decfsz	??_keypad_readkey,f
  2595  07AB  2FAA               	goto	u1677
  2596  07AC  0000               	nop
  2597  07AD                     l1534:
  2598                           
  2599                           ;./kbd.h: 82:     if(RC1==0 && RC0==0 && RA5==0 && RA4==1) {
  2600  07AD  1283               	bcf	3,5	;RP0=0, select bank0
  2601  07AE  1303               	bcf	3,6	;RP1=0, select bank0
  2602  07AF  1887               	btfsc	7,1	;volatile
  2603  07B0  2FB2               	goto	u1291
  2604  07B1  2FB3               	goto	u1290
  2605  07B2                     u1291:
  2606  07B2  2FD7               	goto	l1560
  2607  07B3                     u1290:
  2608  07B3                     l1536:
  2609  07B3  1807               	btfsc	7,0	;volatile
  2610  07B4  2FB6               	goto	u1301
  2611  07B5  2FB7               	goto	u1300
  2612  07B6                     u1301:
  2613  07B6  2FD7               	goto	l1560
  2614  07B7                     u1300:
  2615  07B7                     l1538:
  2616  07B7  1A85               	btfsc	5,5	;volatile
  2617  07B8  2FBA               	goto	u1311
  2618  07B9  2FBB               	goto	u1310
  2619  07BA                     u1311:
  2620  07BA  2FD7               	goto	l1560
  2621  07BB                     u1310:
  2622  07BB                     l1540:
  2623  07BB  1E05               	btfss	5,4	;volatile
  2624  07BC  2FBE               	goto	u1321
  2625  07BD  2FBF               	goto	u1320
  2626  07BE                     u1321:
  2627  07BE  2FD7               	goto	l1560
  2628  07BF                     u1320:
  2629  07BF                     l1542:
  2630                           
  2631                           ;./kbd.h: 83:         if (RA0 == 1) return '7';
  2632  07BF  1C05               	btfss	5,0	;volatile
  2633  07C0  2FC2               	goto	u1331
  2634  07C1  2FC3               	goto	u1330
  2635  07C2                     u1331:
  2636  07C2  2FC5               	goto	l113
  2637  07C3                     u1330:
  2638  07C3                     l1544:
  2639  07C3  3037               	movlw	55
  2640  07C4  2FD8               	goto	l98
  2641  07C5                     l113:
  2642                           
  2643                           ;./kbd.h: 84:         if (RA1 == 1) return '8';
  2644  07C5  1C85               	btfss	5,1	;volatile
  2645  07C6  2FC8               	goto	u1341
  2646  07C7  2FC9               	goto	u1340
  2647  07C8                     u1341:
  2648  07C8  2FCB               	goto	l114
  2649  07C9                     u1340:
  2650  07C9                     l1548:
  2651  07C9  3038               	movlw	56
  2652  07CA  2FD8               	goto	l98
  2653  07CB                     l114:
  2654                           
  2655                           ;./kbd.h: 85:         if (RA2 == 1) return '9';
  2656  07CB  1D05               	btfss	5,2	;volatile
  2657  07CC  2FCE               	goto	u1351
  2658  07CD  2FCF               	goto	u1350
  2659  07CE                     u1351:
  2660  07CE  2FD1               	goto	l115
  2661  07CF                     u1350:
  2662  07CF                     l1552:
  2663  07CF  3039               	movlw	57
  2664  07D0  2FD8               	goto	l98
  2665  07D1                     l115:
  2666                           
  2667                           ;./kbd.h: 86:         if (RA3 == 1) return 'A';
  2668  07D1  1D85               	btfss	5,3	;volatile
  2669  07D2  2FD4               	goto	u1361
  2670  07D3  2FD5               	goto	u1360
  2671  07D4                     u1361:
  2672  07D4  2FD7               	goto	l1560
  2673  07D5                     u1360:
  2674  07D5                     l1556:
  2675  07D5  3041               	movlw	65
  2676  07D6  2FD8               	goto	l98
  2677  07D7                     l1560:
  2678                           
  2679                           ;./kbd.h: 88:  return 'x';
  2680  07D7  3078               	movlw	120
  2681  07D8                     l98:
  2682  07D8  0008               	return
  2683  07D9                     __end_of_keypad_readkey:
  2684                           
  2685                           	psect	text10
  2686  031C                     __ptext10:	
  2687 ;; *************** function _inicio_presentacion *****************
  2688 ;; Defined at:
  2689 ;;		line 112 in file "main.c"
  2690 ;; Parameters:    Size  Location     Type
  2691 ;;  length          2   10[BANK0 ] int 
  2692 ;;  str             1   12[BANK0 ] PTR unsigned char 
  2693 ;;		 -> grupo(6), presentacion(29), saludo(23), 
  2694 ;; Auto vars:     Size  Location     Type
  2695 ;;  i               2   16[BANK0 ] int 
  2696 ;; Return value:  Size  Location     Type
  2697 ;;                  1    wreg      void 
  2698 ;; Registers used:
  2699 ;;		wreg, fsr0l, fsr0h, status,2, status,0, pclath, cstack
  2700 ;; Tracked objects:
  2701 ;;		On entry : 0/0
  2702 ;;		On exit  : 0/0
  2703 ;;		Unchanged: 0/0
  2704 ;; Data sizes:     COMMON   BANK0   BANK1
  2705 ;;      Params:         0       3       0
  2706 ;;      Locals:         0       2       0
  2707 ;;      Temps:          0       3       0
  2708 ;;      Totals:         0       8       0
  2709 ;;Total ram usage:        8 bytes
  2710 ;; Hardware stack levels used: 1
  2711 ;; Hardware stack levels required when called: 3
  2712 ;; This function calls:
  2713 ;;		_LCD_Cmd
  2714 ;;		_LCD_Goto
  2715 ;;		_LCD_Print
  2716 ;; This function is called by:
  2717 ;;		_main
  2718 ;; This function uses a non-reentrant model
  2719 ;;
  2720                           
  2721                           
  2722                           ;psect for function _inicio_presentacion
  2723  031C                     _inicio_presentacion:
  2724  031C                     l1696:	
  2725                           ;incstack = 0
  2726                           ; Regs used in _inicio_presentacion: [wreg-fsr0h+status,2+status,0+pclath+cstack]
  2727                           
  2728                           
  2729                           ;main.c: 112: void inicio_presentacion (int length, char *str);main.c: 113: {;main.c: 11
      +                          4:     LCD_Goto(1,1);
  2730  031C  1283               	bcf	3,5	;RP0=0, select bank0
  2731  031D  1303               	bcf	3,6	;RP1=0, select bank0
  2732  031E  01A6               	clrf	LCD_Goto@row
  2733  031F  0AA6               	incf	LCD_Goto@row,f
  2734  0320  3001               	movlw	1
  2735  0321  118A  21A9  118A   	fcall	_LCD_Goto
  2736                           
  2737                           ;main.c: 115:     LCD_Print(str);
  2738  0324  1283               	bcf	3,5	;RP0=0, select bank0
  2739  0325  1303               	bcf	3,6	;RP1=0, select bank0
  2740  0326  082C               	movf	inicio_presentacion@str,w
  2741  0327  118A  220B  118A   	fcall	_LCD_Print
  2742  032A                     l1698:
  2743                           
  2744                           ;main.c: 116:     _delay((unsigned long)((25)*(32000000/4000.0)));
  2745  032A  3002               	movlw	2
  2746  032B  1283               	bcf	3,5	;RP0=0, select bank0
  2747  032C  1303               	bcf	3,6	;RP1=0, select bank0
  2748  032D  00AF               	movwf	??_inicio_presentacion+2
  2749  032E  3004               	movlw	4
  2750  032F  00AE               	movwf	??_inicio_presentacion+1
  2751  0330  30BA               	movlw	186
  2752  0331  00AD               	movwf	??_inicio_presentacion
  2753  0332                     u1687:
  2754  0332  0BAD               	decfsz	??_inicio_presentacion,f
  2755  0333  2B32               	goto	u1687
  2756  0334  0BAE               	decfsz	??_inicio_presentacion+1,f
  2757  0335  2B32               	goto	u1687
  2758  0336  0BAF               	decfsz	??_inicio_presentacion+2,f
  2759  0337  2B32               	goto	u1687
  2760  0338                     l1700:
  2761                           
  2762                           ;main.c: 117:     for(int i=0;i<length;i++){
  2763  0338  1283               	bcf	3,5	;RP0=0, select bank0
  2764  0339  1303               	bcf	3,6	;RP1=0, select bank0
  2765  033A  01B0               	clrf	inicio_presentacion@i
  2766  033B  01B1               	clrf	inicio_presentacion@i+1
  2767  033C  2B54               	goto	l1708
  2768  033D                     l1702:
  2769                           
  2770                           ;main.c: 118:         LCD_Cmd(0x18);
  2771  033D  3018               	movlw	24
  2772  033E  118A  217B  118A   	fcall	_LCD_Cmd
  2773  0341                     l1704:
  2774                           
  2775                           ;main.c: 119:         _delay((unsigned long)((20)*(32000000/4000.0)));
  2776  0341  30D0               	movlw	208
  2777  0342  1283               	bcf	3,5	;RP0=0, select bank0
  2778  0343  1303               	bcf	3,6	;RP1=0, select bank0
  2779  0344  00AE               	movwf	??_inicio_presentacion+1
  2780  0345  30C9               	movlw	201
  2781  0346  00AD               	movwf	??_inicio_presentacion
  2782  0347                     u1697:
  2783  0347  0BAD               	decfsz	??_inicio_presentacion,f
  2784  0348  2B47               	goto	u1697
  2785  0349  0BAE               	decfsz	??_inicio_presentacion+1,f
  2786  034A  2B47               	goto	u1697
  2787  034B  0000               	nop
  2788  034C                     l1706:
  2789                           
  2790                           ;main.c: 120:     }
  2791  034C  3001               	movlw	1
  2792  034D  1283               	bcf	3,5	;RP0=0, select bank0
  2793  034E  1303               	bcf	3,6	;RP1=0, select bank0
  2794  034F  07B0               	addwf	inicio_presentacion@i,f
  2795  0350  1803               	skipnc
  2796  0351  0AB1               	incf	inicio_presentacion@i+1,f
  2797  0352  3000               	movlw	0
  2798  0353  07B1               	addwf	inicio_presentacion@i+1,f
  2799  0354                     l1708:
  2800  0354  0831               	movf	inicio_presentacion@i+1,w
  2801  0355  3A80               	xorlw	128
  2802  0356  00AD               	movwf	??_inicio_presentacion
  2803  0357  082B               	movf	inicio_presentacion@length+1,w
  2804  0358  3A80               	xorlw	128
  2805  0359  022D               	subwf	??_inicio_presentacion,w
  2806  035A  1D03               	skipz
  2807  035B  2B5E               	goto	u1535
  2808  035C  082A               	movf	inicio_presentacion@length,w
  2809  035D  0230               	subwf	inicio_presentacion@i,w
  2810  035E                     u1535:
  2811  035E  1C03               	skipc
  2812  035F  2B61               	goto	u1531
  2813  0360  2B62               	goto	u1530
  2814  0361                     u1531:
  2815  0361  2B3D               	goto	l1702
  2816  0362                     u1530:
  2817  0362                     l1710:
  2818                           
  2819                           ;main.c: 121:     _delay((unsigned long)((10)*(32000000/4000.0)));
  2820  0362  3068               	movlw	104
  2821  0363  1283               	bcf	3,5	;RP0=0, select bank0
  2822  0364  1303               	bcf	3,6	;RP1=0, select bank0
  2823  0365  00AE               	movwf	??_inicio_presentacion+1
  2824  0366  30E4               	movlw	228
  2825  0367  00AD               	movwf	??_inicio_presentacion
  2826  0368                     u1707:
  2827  0368  0BAD               	decfsz	??_inicio_presentacion,f
  2828  0369  2B68               	goto	u1707
  2829  036A  0BAE               	decfsz	??_inicio_presentacion+1,f
  2830  036B  2B68               	goto	u1707
  2831  036C                     l1712:
  2832                           
  2833                           ;main.c: 122:     LCD_Cmd(0x01);
  2834  036C  3001               	movlw	1
  2835  036D  118A  217B  118A   	fcall	_LCD_Cmd
  2836  0370                     l1714:
  2837                           
  2838                           ;main.c: 123:     LCD_Goto(1, 1);
  2839  0370  1283               	bcf	3,5	;RP0=0, select bank0
  2840  0371  1303               	bcf	3,6	;RP1=0, select bank0
  2841  0372  01A6               	clrf	LCD_Goto@row
  2842  0373  0AA6               	incf	LCD_Goto@row,f
  2843  0374  3001               	movlw	1
  2844  0375  118A  21A9  118A   	fcall	_LCD_Goto
  2845  0378                     l164:
  2846  0378  0008               	return
  2847  0379                     __end_of_inicio_presentacion:
  2848                           
  2849                           	psect	text11
  2850  020B                     __ptext11:	
  2851 ;; *************** function _LCD_Print *****************
  2852 ;; Defined at:
  2853 ;;		line 113 in file "./lcd.h"
  2854 ;; Parameters:    Size  Location     Type
  2855 ;;  LCD_Str         1    wreg     PTR unsigned char 
  2856 ;;		 -> ventilator_screen@vel(16), ventilator_screen@vol(16), grupo(6), presentacion(29), 
  2857 ;;		 -> saludo(23), 
  2858 ;; Auto vars:     Size  Location     Type
  2859 ;;  LCD_Str         1    6[BANK0 ] PTR unsigned char 
  2860 ;;		 -> ventilator_screen@vel(16), ventilator_screen@vol(16), grupo(6), presentacion(29), 
  2861 ;;		 -> saludo(23), 
  2862 ;;  i               1    5[BANK0 ] unsigned char 
  2863 ;; Return value:  Size  Location     Type
  2864 ;;                  1    wreg      void 
  2865 ;; Registers used:
  2866 ;;		wreg, fsr0l, fsr0h, status,2, status,0, pclath, cstack
  2867 ;; Tracked objects:
  2868 ;;		On entry : 0/0
  2869 ;;		On exit  : 0/0
  2870 ;;		Unchanged: 0/0
  2871 ;; Data sizes:     COMMON   BANK0   BANK1
  2872 ;;      Params:         0       0       0
  2873 ;;      Locals:         0       2       0
  2874 ;;      Temps:          0       2       0
  2875 ;;      Totals:         0       4       0
  2876 ;;Total ram usage:        4 bytes
  2877 ;; Hardware stack levels used: 1
  2878 ;; Hardware stack levels required when called: 1
  2879 ;; This function calls:
  2880 ;;		_LCD_Write_Nibble
  2881 ;; This function is called by:
  2882 ;;		_inicio_presentacion
  2883 ;;		_ventilator_screen
  2884 ;; This function uses a non-reentrant model
  2885 ;;
  2886                           
  2887                           
  2888                           ;psect for function _LCD_Print
  2889  020B                     _LCD_Print:
  2890                           
  2891                           ;incstack = 0
  2892                           ; Regs used in _LCD_Print: [wreg-fsr0h+status,2+status,0+pclath+cstack]
  2893                           ;LCD_Print@LCD_Str stored from wreg
  2894  020B  1283               	bcf	3,5	;RP0=0, select bank0
  2895  020C  1303               	bcf	3,6	;RP1=0, select bank0
  2896  020D  00A6               	movwf	LCD_Print@LCD_Str
  2897  020E                     l1436:
  2898                           
  2899                           ;./lcd.h: 113: void LCD_Print(char* LCD_Str);./lcd.h: 114: {;./lcd.h: 115:   uint8_t i =
      +                           0;
  2900  020E  01A5               	clrf	LCD_Print@i
  2901  020F                     l1438:
  2902                           
  2903                           ;./lcd.h: 116:   RS = 1;
  2904  020F  147B               	bsf	_RS/(0+8),_RS& (0+7)
  2905                           
  2906                           ;./lcd.h: 117:   while(LCD_Str[i] != '\0')
  2907  0210  2A34               	goto	l1444
  2908  0211                     l1440:
  2909                           
  2910                           ;./lcd.h: 118:   {;./lcd.h: 119:     LCD_Write_Nibble(LCD_Str[i] >> 4);
  2911  0211  0825               	movf	LCD_Print@i,w
  2912  0212  0726               	addwf	LCD_Print@LCD_Str,w
  2913  0213  00A3               	movwf	??_LCD_Print
  2914  0214  0823               	movf	??_LCD_Print,w
  2915  0215  0084               	movwf	4
  2916  0216  0800               	movf	0,w
  2917  0217  00A4               	movwf	??_LCD_Print+1
  2918  0218  3004               	movlw	4
  2919  0219                     u1035:
  2920  0219  1003               	clrc
  2921  021A  0CA4               	rrf	??_LCD_Print+1,f
  2922  021B  3EFF               	addlw	-1
  2923  021C  1D03               	skipz
  2924  021D  2A19               	goto	u1035
  2925  021E  0824               	movf	??_LCD_Print+1,w
  2926  021F  118A  2379  118A   	fcall	_LCD_Write_Nibble
  2927                           
  2928                           ;./lcd.h: 120:     LCD_Write_Nibble(LCD_Str[i++] );
  2929  0222  1283               	bcf	3,5	;RP0=0, select bank0
  2930  0223  1303               	bcf	3,6	;RP1=0, select bank0
  2931  0224  0825               	movf	LCD_Print@i,w
  2932  0225  0726               	addwf	LCD_Print@LCD_Str,w
  2933  0226  00A3               	movwf	??_LCD_Print
  2934  0227  0823               	movf	??_LCD_Print,w
  2935  0228  0084               	movwf	4
  2936  0229  1383               	bcf	3,7	;select IRP bank0
  2937  022A  0800               	movf	0,w
  2938  022B  118A  2379  118A   	fcall	_LCD_Write_Nibble
  2939  022E                     l1442:
  2940  022E  3001               	movlw	1
  2941  022F  1283               	bcf	3,5	;RP0=0, select bank0
  2942  0230  1303               	bcf	3,6	;RP1=0, select bank0
  2943  0231  00A3               	movwf	??_LCD_Print
  2944  0232  0823               	movf	??_LCD_Print,w
  2945  0233  07A5               	addwf	LCD_Print@i,f
  2946  0234                     l1444:
  2947                           
  2948                           ;./lcd.h: 117:   while(LCD_Str[i] != '\0')
  2949  0234  0825               	movf	LCD_Print@i,w
  2950  0235  0726               	addwf	LCD_Print@LCD_Str,w
  2951  0236  00A3               	movwf	??_LCD_Print
  2952  0237  0823               	movf	??_LCD_Print,w
  2953  0238  0084               	movwf	4
  2954  0239  1383               	bcf	3,7	;select IRP bank0
  2955  023A  0800               	movf	0,w
  2956  023B  1D03               	btfss	3,2
  2957  023C  2A3E               	goto	u1041
  2958  023D  2A3F               	goto	u1040
  2959  023E                     u1041:
  2960  023E  2A11               	goto	l1440
  2961  023F                     u1040:
  2962  023F                     l75:
  2963  023F  0008               	return
  2964  0240                     __end_of_LCD_Print:
  2965                           
  2966                           	psect	text12
  2967  01A9                     __ptext12:	
  2968 ;; *************** function _LCD_Goto *****************
  2969 ;; Defined at:
  2970 ;;		line 87 in file "./lcd.h"
  2971 ;; Parameters:    Size  Location     Type
  2972 ;;  col             1    wreg     unsigned char 
  2973 ;;  row             1    6[BANK0 ] unsigned char 
  2974 ;; Auto vars:     Size  Location     Type
  2975 ;;  col             1    9[BANK0 ] unsigned char 
  2976 ;; Return value:  Size  Location     Type
  2977 ;;                  1    wreg      void 
  2978 ;; Registers used:
  2979 ;;		wreg, fsr0l, fsr0h, status,2, status,0, pclath, cstack
  2980 ;; Tracked objects:
  2981 ;;		On entry : 0/0
  2982 ;;		On exit  : 0/0
  2983 ;;		Unchanged: 0/0
  2984 ;; Data sizes:     COMMON   BANK0   BANK1
  2985 ;;      Params:         0       1       0
  2986 ;;      Locals:         0       1       0
  2987 ;;      Temps:          0       2       0
  2988 ;;      Totals:         0       4       0
  2989 ;;Total ram usage:        4 bytes
  2990 ;; Hardware stack levels used: 1
  2991 ;; Hardware stack levels required when called: 2
  2992 ;; This function calls:
  2993 ;;		_LCD_Cmd
  2994 ;; This function is called by:
  2995 ;;		_main
  2996 ;;		_inicio_presentacion
  2997 ;;		_ventilator_screen
  2998 ;; This function uses a non-reentrant model
  2999 ;;
  3000                           
  3001                           
  3002                           ;psect for function _LCD_Goto
  3003  01A9                     _LCD_Goto:
  3004                           
  3005                           ;incstack = 0
  3006                           ; Regs used in _LCD_Goto: [wreg-fsr0h+status,2+status,0+pclath+cstack]
  3007                           ;LCD_Goto@col stored from wreg
  3008  01A9  1283               	bcf	3,5	;RP0=0, select bank0
  3009  01AA  1303               	bcf	3,6	;RP1=0, select bank0
  3010  01AB  00A9               	movwf	LCD_Goto@col
  3011  01AC                     l1418:
  3012                           
  3013                           ;./lcd.h: 87: void LCD_Goto(uint8_t col, uint8_t row);./lcd.h: 88: {;./lcd.h: 89:   swit
      +                          ch(row)
  3014  01AC  29C5               	goto	l1428
  3015  01AD                     l1420:
  3016                           
  3017                           ;./lcd.h: 92:       LCD_Cmd(0xC0 + col - 1);
  3018  01AD  0829               	movf	LCD_Goto@col,w
  3019  01AE  3EBF               	addlw	191
  3020  01AF  118A  217B  118A   	fcall	_LCD_Cmd
  3021                           
  3022                           ;./lcd.h: 93:       break;
  3023  01B2  29D8               	goto	l66
  3024  01B3                     l1422:
  3025                           
  3026                           ;./lcd.h: 95:       LCD_Cmd(0x94 + col - 1);
  3027  01B3  0829               	movf	LCD_Goto@col,w
  3028  01B4  3E93               	addlw	147
  3029  01B5  118A  217B  118A   	fcall	_LCD_Cmd
  3030                           
  3031                           ;./lcd.h: 96:       break;
  3032  01B8  29D8               	goto	l66
  3033  01B9                     l1424:
  3034                           
  3035                           ;./lcd.h: 98:       LCD_Cmd(0xD4 + col - 1);
  3036  01B9  0829               	movf	LCD_Goto@col,w
  3037  01BA  3ED3               	addlw	211
  3038  01BB  118A  217B  118A   	fcall	_LCD_Cmd
  3039                           
  3040                           ;./lcd.h: 99:     break;
  3041  01BE  29D8               	goto	l66
  3042  01BF                     l1426:
  3043                           
  3044                           ;./lcd.h: 101:       LCD_Cmd(0x80 + col - 1);
  3045  01BF  0829               	movf	LCD_Goto@col,w
  3046  01C0  3E7F               	addlw	127
  3047  01C1  118A  217B  118A   	fcall	_LCD_Cmd
  3048                           
  3049                           ;./lcd.h: 102:   }
  3050  01C4  29D8               	goto	l66
  3051  01C5                     l1428:
  3052  01C5  0826               	movf	LCD_Goto@row,w
  3053  01C6  00A7               	movwf	??_LCD_Goto
  3054  01C7  01A8               	clrf	??_LCD_Goto+1
  3055                           
  3056                           ; Switch on 2 bytes has been partitioned into a top level switch of size 1, and 1 sub-sw
      +                          itches
  3057                           ; Switch size 1, requested type "simple"
  3058                           ; Number of cases is 1, Range of values is 0 to 0
  3059                           ; switch strategies available:
  3060                           ; Name         Instructions Cycles
  3061                           ; simple_byte            4     3 (average)
  3062                           ; direct_byte            9     7 (fixed)
  3063                           ; jumptable            260     6 (fixed)
  3064                           ;	Chosen strategy is simple_byte
  3065  01C8  0828               	movf	??_LCD_Goto+1,w
  3066  01C9  3A00               	xorlw	0	; case 0
  3067  01CA  1903               	skipnz
  3068  01CB  29CD               	goto	l1810
  3069  01CC  29BF               	goto	l1426
  3070  01CD                     l1810:
  3071                           
  3072                           ; Switch size 1, requested type "simple"
  3073                           ; Number of cases is 3, Range of values is 2 to 4
  3074                           ; switch strategies available:
  3075                           ; Name         Instructions Cycles
  3076                           ; simple_byte           10     6 (average)
  3077                           ; direct_byte           16    10 (fixed)
  3078                           ; jumptable            263     9 (fixed)
  3079                           ;	Chosen strategy is simple_byte
  3080  01CD  0827               	movf	??_LCD_Goto,w
  3081  01CE  3A02               	xorlw	2	; case 2
  3082  01CF  1903               	skipnz
  3083  01D0  29AD               	goto	l1420
  3084  01D1  3A01               	xorlw	1	; case 3
  3085  01D2  1903               	skipnz
  3086  01D3  29B3               	goto	l1422
  3087  01D4  3A07               	xorlw	7	; case 4
  3088  01D5  1903               	skipnz
  3089  01D6  29B9               	goto	l1424
  3090  01D7  29BF               	goto	l1426
  3091  01D8                     l66:
  3092  01D8  0008               	return
  3093  01D9                     __end_of_LCD_Goto:
  3094                           
  3095                           	psect	text13
  3096  010A                     __ptext13:	
  3097 ;; *************** function _iniciar_puertos *****************
  3098 ;; Defined at:
  3099 ;;		line 78 in file "main.c"
  3100 ;; Parameters:    Size  Location     Type
  3101 ;;		None
  3102 ;; Auto vars:     Size  Location     Type
  3103 ;;		None
  3104 ;; Return value:  Size  Location     Type
  3105 ;;                  1    wreg      void 
  3106 ;; Registers used:
  3107 ;;		wreg, status,2
  3108 ;; Tracked objects:
  3109 ;;		On entry : 0/0
  3110 ;;		On exit  : 0/0
  3111 ;;		Unchanged: 0/0
  3112 ;; Data sizes:     COMMON   BANK0   BANK1
  3113 ;;      Params:         0       0       0
  3114 ;;      Locals:         0       0       0
  3115 ;;      Temps:          0       0       0
  3116 ;;      Totals:         0       0       0
  3117 ;;Total ram usage:        0 bytes
  3118 ;; Hardware stack levels used: 1
  3119 ;; This function calls:
  3120 ;;		Nothing
  3121 ;; This function is called by:
  3122 ;;		_main
  3123 ;; This function uses a non-reentrant model
  3124 ;;
  3125                           
  3126                           
  3127                           ;psect for function _iniciar_puertos
  3128  010A                     _iniciar_puertos:
  3129  010A                     l1670:	
  3130                           ;incstack = 0
  3131                           ; Regs used in _iniciar_puertos: [wreg+status,2]
  3132                           
  3133                           
  3134                           ;main.c: 82:     PORTA = 0;
  3135  010A  1283               	bcf	3,5	;RP0=0, select bank0
  3136  010B  1303               	bcf	3,6	;RP1=0, select bank0
  3137  010C  0185               	clrf	5	;volatile
  3138                           
  3139                           ;main.c: 83:     PORTB = 0;
  3140  010D  0186               	clrf	6	;volatile
  3141                           
  3142                           ;main.c: 84:     PORTC = 0;
  3143  010E  0187               	clrf	7	;volatile
  3144  010F                     l1672:
  3145                           
  3146                           ;main.c: 89:     TRISCbits.TRISC0 = 0;
  3147  010F  1683               	bsf	3,5	;RP0=1, select bank1
  3148  0110  1303               	bcf	3,6	;RP1=0, select bank1
  3149  0111  1007               	bcf	7,0	;volatile
  3150  0112                     l1674:
  3151                           
  3152                           ;main.c: 90:     TRISCbits.TRISC1 = 0;
  3153  0112  1087               	bcf	7,1	;volatile
  3154  0113                     l1676:
  3155                           
  3156                           ;main.c: 92:     TRISCbits.TRISC3 = 0;
  3157  0113  1187               	bcf	7,3	;volatile
  3158  0114                     l1678:
  3159                           
  3160                           ;main.c: 93:     TRISCbits.TRISC4 = 0;
  3161  0114  1207               	bcf	7,4	;volatile
  3162  0115                     l1680:
  3163                           
  3164                           ;main.c: 95:     TRISCbits.TRISC6 = 0;
  3165  0115  1307               	bcf	7,6	;volatile
  3166  0116                     l1682:
  3167                           
  3168                           ;main.c: 99:     TRISAbits.TRISA0 = 1;
  3169  0116  1405               	bsf	5,0	;volatile
  3170  0117                     l1684:
  3171                           
  3172                           ;main.c: 100:     TRISAbits.TRISA1 = 1;
  3173  0117  1485               	bsf	5,1	;volatile
  3174  0118                     l1686:
  3175                           
  3176                           ;main.c: 101:     TRISAbits.TRISA2 = 1;
  3177  0118  1505               	bsf	5,2	;volatile
  3178  0119                     l1688:
  3179                           
  3180                           ;main.c: 102:     TRISAbits.TRISA3 = 1;
  3181  0119  1585               	bsf	5,3	;volatile
  3182  011A                     l1690:
  3183                           
  3184                           ;main.c: 103:     TRISAbits.TRISA4 = 0;
  3185  011A  1205               	bcf	5,4	;volatile
  3186  011B                     l1692:
  3187                           
  3188                           ;main.c: 104:     TRISAbits.TRISA5 = 0;
  3189  011B  1285               	bcf	5,5	;volatile
  3190  011C                     l1694:
  3191                           
  3192                           ;main.c: 108:     ADCON1 = 0x07;
  3193  011C  3007               	movlw	7
  3194  011D  009F               	movwf	31	;volatile
  3195  011E                     l158:
  3196  011E  0008               	return
  3197  011F                     __end_of_iniciar_puertos:
  3198                           
  3199                           	psect	text14
  3200  011F                     __ptext14:	
  3201 ;; *************** function _LCD_PutC *****************
  3202 ;; Defined at:
  3203 ;;		line 106 in file "./lcd.h"
  3204 ;; Parameters:    Size  Location     Type
  3205 ;;  LCD_Char        1    wreg     unsigned char 
  3206 ;; Auto vars:     Size  Location     Type
  3207 ;;  LCD_Char        1    4[BANK0 ] unsigned char 
  3208 ;; Return value:  Size  Location     Type
  3209 ;;                  1    wreg      void 
  3210 ;; Registers used:
  3211 ;;		wreg, status,2, status,0, pclath, cstack
  3212 ;; Tracked objects:
  3213 ;;		On entry : 0/0
  3214 ;;		On exit  : 0/0
  3215 ;;		Unchanged: 0/0
  3216 ;; Data sizes:     COMMON   BANK0   BANK1
  3217 ;;      Params:         0       0       0
  3218 ;;      Locals:         0       1       0
  3219 ;;      Temps:          0       1       0
  3220 ;;      Totals:         0       2       0
  3221 ;;Total ram usage:        2 bytes
  3222 ;; Hardware stack levels used: 1
  3223 ;; Hardware stack levels required when called: 1
  3224 ;; This function calls:
  3225 ;;		_LCD_Write_Nibble
  3226 ;; This function is called by:
  3227 ;;		_main
  3228 ;; This function uses a non-reentrant model
  3229 ;;
  3230                           
  3231                           
  3232                           ;psect for function _LCD_PutC
  3233  011F                     _LCD_PutC:
  3234                           
  3235                           ;incstack = 0
  3236                           ; Regs used in _LCD_PutC: [wreg+status,2+status,0+pclath+cstack]
  3237                           ;LCD_PutC@LCD_Char stored from wreg
  3238  011F  1283               	bcf	3,5	;RP0=0, select bank0
  3239  0120  1303               	bcf	3,6	;RP1=0, select bank0
  3240  0121  00A4               	movwf	LCD_PutC@LCD_Char
  3241  0122                     l1626:
  3242                           
  3243                           ;./lcd.h: 106: void LCD_PutC(char LCD_Char);./lcd.h: 107: {;./lcd.h: 108:   RS = 1;
  3244  0122  147B               	bsf	_RS/(0+8),_RS& (0+7)
  3245  0123                     l1628:
  3246                           
  3247                           ;./lcd.h: 109:   LCD_Write_Nibble(LCD_Char >> 4);
  3248  0123  0824               	movf	LCD_PutC@LCD_Char,w
  3249  0124  00A3               	movwf	??_LCD_PutC
  3250  0125  3004               	movlw	4
  3251  0126                     u1505:
  3252  0126  1003               	clrc
  3253  0127  0CA3               	rrf	??_LCD_PutC,f
  3254  0128  3EFF               	addlw	-1
  3255  0129  1D03               	skipz
  3256  012A  2926               	goto	u1505
  3257  012B  0823               	movf	??_LCD_PutC,w
  3258  012C  118A  2379  118A   	fcall	_LCD_Write_Nibble
  3259                           
  3260                           ;./lcd.h: 110:   LCD_Write_Nibble(LCD_Char );
  3261  012F  1283               	bcf	3,5	;RP0=0, select bank0
  3262  0130  1303               	bcf	3,6	;RP1=0, select bank0
  3263  0131  0824               	movf	LCD_PutC@LCD_Char,w
  3264  0132  118A  2379  118A   	fcall	_LCD_Write_Nibble
  3265  0135                     l69:
  3266  0135  0008               	return
  3267  0136                     __end_of_LCD_PutC:
  3268                           
  3269                           	psect	text15
  3270  0570                     __ptext15:	
  3271 ;; *************** function _LCD_Begin *****************
  3272 ;; Defined at:
  3273 ;;		line 124 in file "./lcd.h"
  3274 ;; Parameters:    Size  Location     Type
  3275 ;;		None
  3276 ;; Auto vars:     Size  Location     Type
  3277 ;;		None
  3278 ;; Return value:  Size  Location     Type
  3279 ;;                  1    wreg      void 
  3280 ;; Registers used:
  3281 ;;		wreg, status,2, status,0, pclath, cstack
  3282 ;; Tracked objects:
  3283 ;;		On entry : 0/0
  3284 ;;		On exit  : 0/0
  3285 ;;		Unchanged: 0/0
  3286 ;; Data sizes:     COMMON   BANK0   BANK1
  3287 ;;      Params:         0       0       0
  3288 ;;      Locals:         0       0       0
  3289 ;;      Temps:          0       3       0
  3290 ;;      Totals:         0       3       0
  3291 ;;Total ram usage:        3 bytes
  3292 ;; Hardware stack levels used: 1
  3293 ;; Hardware stack levels required when called: 2
  3294 ;; This function calls:
  3295 ;;		_LCD_Cmd
  3296 ;; This function is called by:
  3297 ;;		_main
  3298 ;; This function uses a non-reentrant model
  3299 ;;
  3300                           
  3301                           
  3302                           ;psect for function _LCD_Begin
  3303  0570                     _LCD_Begin:
  3304  0570                     l1630:	
  3305                           ;incstack = 0
  3306                           ; Regs used in _LCD_Begin: [wreg+status,2+status,0+pclath+cstack]
  3307                           
  3308                           
  3309                           ;./lcd.h: 126:   RS = 0;
  3310  0570  1283               	bcf	3,5	;RP0=0, select bank0
  3311  0571  1303               	bcf	3,6	;RP1=0, select bank0
  3312  0572  107B               	bcf	_RS/(0+8),_RS& (0+7)
  3313                           
  3314                           ;./lcd.h: 127:   PORTCbits.RC5 = 0;
  3315  0573  1287               	bcf	7,5	;volatile
  3316                           
  3317                           ;./lcd.h: 128:   PORTCbits.RC6 = 0;
  3318  0574  1307               	bcf	7,6	;volatile
  3319                           
  3320                           ;./lcd.h: 129:   PORTCbits.RC7 = 0;
  3321  0575  1387               	bcf	7,7	;volatile
  3322                           
  3323                           ;./lcd.h: 134:   PORTBbits.RB4 = 0;
  3324  0576  1206               	bcf	6,4	;volatile
  3325                           
  3326                           ;./lcd.h: 135:   PORTBbits.RB5 = 0;
  3327  0577  1286               	bcf	6,5	;volatile
  3328                           
  3329                           ;./lcd.h: 136:   PORTBbits.RB6 = 0;
  3330  0578  1306               	bcf	6,6	;volatile
  3331                           
  3332                           ;./lcd.h: 137:   PORTBbits.RB7 = 0;
  3333  0579  1386               	bcf	6,7	;volatile
  3334                           
  3335                           ;./lcd.h: 138:   TRISCbits.TRISC5 = 0;
  3336  057A  1683               	bsf	3,5	;RP0=1, select bank1
  3337  057B  1303               	bcf	3,6	;RP1=0, select bank1
  3338  057C  1287               	bcf	7,5	;volatile
  3339                           
  3340                           ;./lcd.h: 139:   TRISCbits.TRISC6 = 0;
  3341  057D  1307               	bcf	7,6	;volatile
  3342                           
  3343                           ;./lcd.h: 140:   TRISCbits.TRISC7 = 0;
  3344  057E  1387               	bcf	7,7	;volatile
  3345                           
  3346                           ;./lcd.h: 145:   TRISBbits.TRISB4 = 0;
  3347  057F  1206               	bcf	6,4	;volatile
  3348                           
  3349                           ;./lcd.h: 146:   TRISBbits.TRISB5 = 0;
  3350  0580  1286               	bcf	6,5	;volatile
  3351                           
  3352                           ;./lcd.h: 147:   TRISBbits.TRISB6 = 0;
  3353  0581  1306               	bcf	6,6	;volatile
  3354                           
  3355                           ;./lcd.h: 148:   TRISBbits.TRISB7 = 0;
  3356  0582  1386               	bcf	6,7	;volatile
  3357  0583                     l1632:
  3358                           
  3359                           ;./lcd.h: 149:   _delay((unsigned long)((40)*(32000000/4000.0)));
  3360  0583  3002               	movlw	2
  3361  0584  1283               	bcf	3,5	;RP0=0, select bank0
  3362  0585  1303               	bcf	3,6	;RP1=0, select bank0
  3363  0586  00A8               	movwf	??_LCD_Begin+2
  3364  0587  30A0               	movlw	160
  3365  0588  00A7               	movwf	??_LCD_Begin+1
  3366  0589  3092               	movlw	146
  3367  058A  00A6               	movwf	??_LCD_Begin
  3368  058B                     u1717:
  3369  058B  0BA6               	decfsz	??_LCD_Begin,f
  3370  058C  2D8B               	goto	u1717
  3371  058D  0BA7               	decfsz	??_LCD_Begin+1,f
  3372  058E  2D8B               	goto	u1717
  3373  058F  0BA8               	decfsz	??_LCD_Begin+2,f
  3374  0590  2D8B               	goto	u1717
  3375  0591                     l1634:
  3376                           
  3377                           ;./lcd.h: 150:   LCD_Cmd(3);
  3378  0591  3003               	movlw	3
  3379  0592  118A  217B  118A   	fcall	_LCD_Cmd
  3380  0595                     l1636:
  3381                           
  3382                           ;./lcd.h: 151:   _delay((unsigned long)((5)*(32000000/4000.0)));
  3383  0595  3034               	movlw	52
  3384  0596  1283               	bcf	3,5	;RP0=0, select bank0
  3385  0597  1303               	bcf	3,6	;RP1=0, select bank0
  3386  0598  00A7               	movwf	??_LCD_Begin+1
  3387  0599  30F1               	movlw	241
  3388  059A  00A6               	movwf	??_LCD_Begin
  3389  059B                     u1727:
  3390  059B  0BA6               	decfsz	??_LCD_Begin,f
  3391  059C  2D9B               	goto	u1727
  3392  059D  0BA7               	decfsz	??_LCD_Begin+1,f
  3393  059E  2D9B               	goto	u1727
  3394  059F  0000               	nop
  3395                           
  3396                           ;./lcd.h: 152:   LCD_Cmd(3);
  3397  05A0  3003               	movlw	3
  3398  05A1  118A  217B  118A   	fcall	_LCD_Cmd
  3399  05A4                     l1638:
  3400                           
  3401                           ;./lcd.h: 153:   _delay((unsigned long)((5)*(32000000/4000.0)));
  3402  05A4  3034               	movlw	52
  3403  05A5  1283               	bcf	3,5	;RP0=0, select bank0
  3404  05A6  1303               	bcf	3,6	;RP1=0, select bank0
  3405  05A7  00A7               	movwf	??_LCD_Begin+1
  3406  05A8  30F1               	movlw	241
  3407  05A9  00A6               	movwf	??_LCD_Begin
  3408  05AA                     u1737:
  3409  05AA  0BA6               	decfsz	??_LCD_Begin,f
  3410  05AB  2DAA               	goto	u1737
  3411  05AC  0BA7               	decfsz	??_LCD_Begin+1,f
  3412  05AD  2DAA               	goto	u1737
  3413  05AE  0000               	nop
  3414  05AF                     l1640:
  3415                           
  3416                           ;./lcd.h: 154:   LCD_Cmd(3);
  3417  05AF  3003               	movlw	3
  3418  05B0  118A  217B  118A   	fcall	_LCD_Cmd
  3419                           
  3420                           ;./lcd.h: 155:   _delay((unsigned long)((5)*(32000000/4000.0)));
  3421  05B3  3034               	movlw	52
  3422  05B4  1283               	bcf	3,5	;RP0=0, select bank0
  3423  05B5  1303               	bcf	3,6	;RP1=0, select bank0
  3424  05B6  00A7               	movwf	??_LCD_Begin+1
  3425  05B7  30F1               	movlw	241
  3426  05B8  00A6               	movwf	??_LCD_Begin
  3427  05B9                     u1747:
  3428  05B9  0BA6               	decfsz	??_LCD_Begin,f
  3429  05BA  2DB9               	goto	u1747
  3430  05BB  0BA7               	decfsz	??_LCD_Begin+1,f
  3431  05BC  2DB9               	goto	u1747
  3432  05BD  0000               	nop
  3433  05BE                     l1642:
  3434                           
  3435                           ;./lcd.h: 156:   LCD_Cmd(0x02);
  3436  05BE  3002               	movlw	2
  3437  05BF  118A  217B  118A   	fcall	_LCD_Cmd
  3438  05C2                     l1644:
  3439                           
  3440                           ;./lcd.h: 157:   _delay((unsigned long)((5)*(32000000/4000.0)));
  3441  05C2  3034               	movlw	52
  3442  05C3  1283               	bcf	3,5	;RP0=0, select bank0
  3443  05C4  1303               	bcf	3,6	;RP1=0, select bank0
  3444  05C5  00A7               	movwf	??_LCD_Begin+1
  3445  05C6  30F1               	movlw	241
  3446  05C7  00A6               	movwf	??_LCD_Begin
  3447  05C8                     u1757:
  3448  05C8  0BA6               	decfsz	??_LCD_Begin,f
  3449  05C9  2DC8               	goto	u1757
  3450  05CA  0BA7               	decfsz	??_LCD_Begin+1,f
  3451  05CB  2DC8               	goto	u1757
  3452  05CC  0000               	nop
  3453                           
  3454                           ;./lcd.h: 158:   LCD_Cmd(0x20 | (2 << 2));
  3455  05CD  3028               	movlw	40
  3456  05CE  118A  217B  118A   	fcall	_LCD_Cmd
  3457  05D1                     l1646:
  3458                           
  3459                           ;./lcd.h: 159:   _delay((unsigned long)((50)*(32000000/4000.0)));
  3460  05D1  3003               	movlw	3
  3461  05D2  1283               	bcf	3,5	;RP0=0, select bank0
  3462  05D3  1303               	bcf	3,6	;RP1=0, select bank0
  3463  05D4  00A8               	movwf	??_LCD_Begin+2
  3464  05D5  3008               	movlw	8
  3465  05D6  00A7               	movwf	??_LCD_Begin+1
  3466  05D7  3076               	movlw	118
  3467  05D8  00A6               	movwf	??_LCD_Begin
  3468  05D9                     u1767:
  3469  05D9  0BA6               	decfsz	??_LCD_Begin,f
  3470  05DA  2DD9               	goto	u1767
  3471  05DB  0BA7               	decfsz	??_LCD_Begin+1,f
  3472  05DC  2DD9               	goto	u1767
  3473  05DD  0BA8               	decfsz	??_LCD_Begin+2,f
  3474  05DE  2DD9               	goto	u1767
  3475  05DF  2DE0               	nop2
  3476  05E0                     l1648:
  3477                           
  3478                           ;./lcd.h: 160:   LCD_Cmd(0x0C);
  3479  05E0  300C               	movlw	12
  3480  05E1  118A  217B  118A   	fcall	_LCD_Cmd
  3481                           
  3482                           ;./lcd.h: 161:   _delay((unsigned long)((50)*(32000000/4000.0)));
  3483  05E4  3003               	movlw	3
  3484  05E5  1283               	bcf	3,5	;RP0=0, select bank0
  3485  05E6  1303               	bcf	3,6	;RP1=0, select bank0
  3486  05E7  00A8               	movwf	??_LCD_Begin+2
  3487  05E8  3008               	movlw	8
  3488  05E9  00A7               	movwf	??_LCD_Begin+1
  3489  05EA  3076               	movlw	118
  3490  05EB  00A6               	movwf	??_LCD_Begin
  3491  05EC                     u1777:
  3492  05EC  0BA6               	decfsz	??_LCD_Begin,f
  3493  05ED  2DEC               	goto	u1777
  3494  05EE  0BA7               	decfsz	??_LCD_Begin+1,f
  3495  05EF  2DEC               	goto	u1777
  3496  05F0  0BA8               	decfsz	??_LCD_Begin+2,f
  3497  05F1  2DEC               	goto	u1777
  3498  05F2  2DF3               	nop2
  3499  05F3                     l1650:
  3500                           
  3501                           ;./lcd.h: 162:   LCD_Cmd(0x01);
  3502  05F3  3001               	movlw	1
  3503  05F4  118A  217B  118A   	fcall	_LCD_Cmd
  3504  05F7                     l1652:
  3505                           
  3506                           ;./lcd.h: 163:   _delay((unsigned long)((50)*(32000000/4000.0)));
  3507  05F7  3003               	movlw	3
  3508  05F8  1283               	bcf	3,5	;RP0=0, select bank0
  3509  05F9  1303               	bcf	3,6	;RP1=0, select bank0
  3510  05FA  00A8               	movwf	??_LCD_Begin+2
  3511  05FB  3008               	movlw	8
  3512  05FC  00A7               	movwf	??_LCD_Begin+1
  3513  05FD  3076               	movlw	118
  3514  05FE  00A6               	movwf	??_LCD_Begin
  3515  05FF                     u1787:
  3516  05FF  0BA6               	decfsz	??_LCD_Begin,f
  3517  0600  2DFF               	goto	u1787
  3518  0601  0BA7               	decfsz	??_LCD_Begin+1,f
  3519  0602  2DFF               	goto	u1787
  3520  0603  0BA8               	decfsz	??_LCD_Begin+2,f
  3521  0604  2DFF               	goto	u1787
  3522  0605  2E06               	nop2
  3523                           
  3524                           ;./lcd.h: 164:   LCD_Cmd(0x04 | 0x02);
  3525  0606  3006               	movlw	6
  3526  0607  118A  217B  118A   	fcall	_LCD_Cmd
  3527  060A                     l1654:
  3528                           
  3529                           ;./lcd.h: 165:   _delay((unsigned long)((50)*(32000000/4000.0)));
  3530  060A  3003               	movlw	3
  3531  060B  1283               	bcf	3,5	;RP0=0, select bank0
  3532  060C  1303               	bcf	3,6	;RP1=0, select bank0
  3533  060D  00A8               	movwf	??_LCD_Begin+2
  3534  060E  3008               	movlw	8
  3535  060F  00A7               	movwf	??_LCD_Begin+1
  3536  0610  3076               	movlw	118
  3537  0611  00A6               	movwf	??_LCD_Begin
  3538  0612                     u1797:
  3539  0612  0BA6               	decfsz	??_LCD_Begin,f
  3540  0613  2E12               	goto	u1797
  3541  0614  0BA7               	decfsz	??_LCD_Begin+1,f
  3542  0615  2E12               	goto	u1797
  3543  0616  0BA8               	decfsz	??_LCD_Begin+2,f
  3544  0617  2E12               	goto	u1797
  3545  0618  2E19               	nop2
  3546  0619                     l1656:
  3547                           
  3548                           ;./lcd.h: 166:   LCD_Cmd(0x0F);
  3549  0619  300F               	movlw	15
  3550  061A  118A  217B  118A   	fcall	_LCD_Cmd
  3551                           
  3552                           ;./lcd.h: 167:   _delay((unsigned long)((50)*(32000000/4000.0)));
  3553  061D  3003               	movlw	3
  3554  061E  1283               	bcf	3,5	;RP0=0, select bank0
  3555  061F  1303               	bcf	3,6	;RP1=0, select bank0
  3556  0620  00A8               	movwf	??_LCD_Begin+2
  3557  0621  3008               	movlw	8
  3558  0622  00A7               	movwf	??_LCD_Begin+1
  3559  0623  3076               	movlw	118
  3560  0624  00A6               	movwf	??_LCD_Begin
  3561  0625                     u1807:
  3562  0625  0BA6               	decfsz	??_LCD_Begin,f
  3563  0626  2E25               	goto	u1807
  3564  0627  0BA7               	decfsz	??_LCD_Begin+1,f
  3565  0628  2E25               	goto	u1807
  3566  0629  0BA8               	decfsz	??_LCD_Begin+2,f
  3567  062A  2E25               	goto	u1807
  3568  062B  2E2C               	nop2
  3569  062C                     l78:
  3570  062C  0008               	return
  3571  062D                     __end_of_LCD_Begin:
  3572                           
  3573                           	psect	text16
  3574  017B                     __ptext16:	
  3575 ;; *************** function _LCD_Cmd *****************
  3576 ;; Defined at:
  3577 ;;		line 78 in file "./lcd.h"
  3578 ;; Parameters:    Size  Location     Type
  3579 ;;  Command         1    wreg     unsigned char 
  3580 ;; Auto vars:     Size  Location     Type
  3581 ;;  Command         1    5[BANK0 ] unsigned char 
  3582 ;; Return value:  Size  Location     Type
  3583 ;;                  1    wreg      void 
  3584 ;; Registers used:
  3585 ;;		wreg, status,2, status,0, pclath, cstack
  3586 ;; Tracked objects:
  3587 ;;		On entry : 0/0
  3588 ;;		On exit  : 0/0
  3589 ;;		Unchanged: 0/0
  3590 ;; Data sizes:     COMMON   BANK0   BANK1
  3591 ;;      Params:         0       0       0
  3592 ;;      Locals:         0       1       0
  3593 ;;      Temps:          0       2       0
  3594 ;;      Totals:         0       3       0
  3595 ;;Total ram usage:        3 bytes
  3596 ;; Hardware stack levels used: 1
  3597 ;; Hardware stack levels required when called: 1
  3598 ;; This function calls:
  3599 ;;		_LCD_Write_Nibble
  3600 ;; This function is called by:
  3601 ;;		_LCD_Goto
  3602 ;;		_LCD_Begin
  3603 ;;		_inicio_presentacion
  3604 ;; This function uses a non-reentrant model
  3605 ;;
  3606                           
  3607                           
  3608                           ;psect for function _LCD_Cmd
  3609  017B                     _LCD_Cmd:
  3610                           
  3611                           ;incstack = 0
  3612                           ; Regs used in _LCD_Cmd: [wreg+status,2+status,0+pclath+cstack]
  3613                           ;LCD_Cmd@Command stored from wreg
  3614  017B  1283               	bcf	3,5	;RP0=0, select bank0
  3615  017C  1303               	bcf	3,6	;RP1=0, select bank0
  3616  017D  00A5               	movwf	LCD_Cmd@Command
  3617  017E                     l1378:
  3618                           
  3619                           ;./lcd.h: 78: void LCD_Cmd(uint8_t Command);./lcd.h: 79: {;./lcd.h: 80:   RS = 0;
  3620  017E  107B               	bcf	_RS/(0+8),_RS& (0+7)
  3621  017F                     l1380:
  3622                           
  3623                           ;./lcd.h: 81:   LCD_Write_Nibble(Command >> 4);
  3624  017F  0825               	movf	LCD_Cmd@Command,w
  3625  0180  00A3               	movwf	??_LCD_Cmd
  3626  0181  3004               	movlw	4
  3627  0182                     u975:
  3628  0182  1003               	clrc
  3629  0183  0CA3               	rrf	??_LCD_Cmd,f
  3630  0184  3EFF               	addlw	-1
  3631  0185  1D03               	skipz
  3632  0186  2982               	goto	u975
  3633  0187  0823               	movf	??_LCD_Cmd,w
  3634  0188  118A  2379  118A   	fcall	_LCD_Write_Nibble
  3635                           
  3636                           ;./lcd.h: 82:   LCD_Write_Nibble(Command);
  3637  018B  1283               	bcf	3,5	;RP0=0, select bank0
  3638  018C  1303               	bcf	3,6	;RP1=0, select bank0
  3639  018D  0825               	movf	LCD_Cmd@Command,w
  3640  018E  118A  2379  118A   	fcall	_LCD_Write_Nibble
  3641  0191                     l1382:
  3642                           
  3643                           ;./lcd.h: 83:   if((Command == 0x01) || (Command == 0x02))
  3644  0191  1283               	bcf	3,5	;RP0=0, select bank0
  3645  0192  1303               	bcf	3,6	;RP1=0, select bank0
  3646  0193  0325               	decf	LCD_Cmd@Command,w
  3647  0194  1903               	btfsc	3,2
  3648  0195  2997               	goto	u981
  3649  0196  2998               	goto	u980
  3650  0197                     u981:
  3651  0197  299E               	goto	l1386
  3652  0198                     u980:
  3653  0198                     l1384:
  3654  0198  3002               	movlw	2
  3655  0199  0625               	xorwf	LCD_Cmd@Command,w
  3656  019A  1D03               	btfss	3,2
  3657  019B  299D               	goto	u991
  3658  019C  299E               	goto	u990
  3659  019D                     u991:
  3660  019D  29A8               	goto	l57
  3661  019E                     u990:
  3662  019E                     l1386:
  3663                           
  3664                           ;./lcd.h: 84:     _delay((unsigned long)((2)*(32000000/4000.0)));
  3665  019E  3015               	movlw	21
  3666  019F  1283               	bcf	3,5	;RP0=0, select bank0
  3667  01A0  1303               	bcf	3,6	;RP1=0, select bank0
  3668  01A1  00A4               	movwf	??_LCD_Cmd+1
  3669  01A2  30C6               	movlw	198
  3670  01A3  00A3               	movwf	??_LCD_Cmd
  3671  01A4                     u1817:
  3672  01A4  0BA3               	decfsz	??_LCD_Cmd,f
  3673  01A5  29A4               	goto	u1817
  3674  01A6  0BA4               	decfsz	??_LCD_Cmd+1,f
  3675  01A7  29A4               	goto	u1817
  3676  01A8                     l57:
  3677  01A8  0008               	return
  3678  01A9                     __end_of_LCD_Cmd:
  3679                           
  3680                           	psect	text17
  3681  0379                     __ptext17:	
  3682 ;; *************** function _LCD_Write_Nibble *****************
  3683 ;; Defined at:
  3684 ;;		line 61 in file "./lcd.h"
  3685 ;; Parameters:    Size  Location     Type
  3686 ;;  n               1    wreg     unsigned char 
  3687 ;; Auto vars:     Size  Location     Type
  3688 ;;  n               1    2[BANK0 ] unsigned char 
  3689 ;; Return value:  Size  Location     Type
  3690 ;;                  1    wreg      void 
  3691 ;; Registers used:
  3692 ;;		wreg, status,2, status,0
  3693 ;; Tracked objects:
  3694 ;;		On entry : 0/0
  3695 ;;		On exit  : 0/0
  3696 ;;		Unchanged: 0/0
  3697 ;; Data sizes:     COMMON   BANK0   BANK1
  3698 ;;      Params:         0       0       0
  3699 ;;      Locals:         0       1       0
  3700 ;;      Temps:          0       2       0
  3701 ;;      Totals:         0       3       0
  3702 ;;Total ram usage:        3 bytes
  3703 ;; Hardware stack levels used: 1
  3704 ;; This function calls:
  3705 ;;		Nothing
  3706 ;; This function is called by:
  3707 ;;		_LCD_Cmd
  3708 ;;		_LCD_PutC
  3709 ;;		_LCD_Print
  3710 ;; This function uses a non-reentrant model
  3711 ;;
  3712                           
  3713                           
  3714                           ;psect for function _LCD_Write_Nibble
  3715  0379                     _LCD_Write_Nibble:
  3716                           
  3717                           ;incstack = 0
  3718                           ; Regs used in _LCD_Write_Nibble: [wreg+status,2+status,0]
  3719                           ;LCD_Write_Nibble@n stored from wreg
  3720  0379  1283               	bcf	3,5	;RP0=0, select bank0
  3721  037A  1303               	bcf	3,6	;RP1=0, select bank0
  3722  037B  00A2               	movwf	LCD_Write_Nibble@n
  3723  037C                     l1314:
  3724                           
  3725                           ;./lcd.h: 61: void LCD_Write_Nibble(uint8_t n);./lcd.h: 62: {;./lcd.h: 63:   PORTCbits.R
      +                          C5 = RS;
  3726  037C  187B               	btfsc	_RS/(0+8),_RS& (0+7)
  3727  037D  2B7F               	goto	u801
  3728  037E  2B83               	goto	u800
  3729  037F                     u801:
  3730  037F  1283               	bcf	3,5	;RP0=0, select bank0
  3731  0380  1303               	bcf	3,6	;RP1=0, select bank0
  3732  0381  1687               	bsf	7,5	;volatile
  3733  0382  2B86               	goto	u814
  3734  0383                     u800:
  3735  0383  1283               	bcf	3,5	;RP0=0, select bank0
  3736  0384  1303               	bcf	3,6	;RP1=0, select bank0
  3737  0385  1287               	bcf	7,5	;volatile
  3738  0386                     u814:
  3739  0386                     l1316:
  3740                           
  3741                           ;./lcd.h: 64:   PORTBbits.RB4 = n & 0x01;
  3742  0386  0822               	movf	LCD_Write_Nibble@n,w
  3743  0387  3901               	andlw	1
  3744  0388  00A0               	movwf	??_LCD_Write_Nibble
  3745  0389  0EA0               	swapf	??_LCD_Write_Nibble,f
  3746  038A  0806               	movf	6,w	;volatile
  3747  038B  0620               	xorwf	??_LCD_Write_Nibble,w
  3748  038C  39EF               	andlw	-17
  3749  038D  0620               	xorwf	??_LCD_Write_Nibble,w
  3750  038E  0086               	movwf	6	;volatile
  3751                           
  3752                           ;./lcd.h: 65:   PORTBbits.RB5 = (n >> 1) & 0x01;
  3753  038F  0822               	movf	LCD_Write_Nibble@n,w
  3754  0390  00A0               	movwf	??_LCD_Write_Nibble
  3755  0391  1003               	clrc
  3756  0392  0C20               	rrf	??_LCD_Write_Nibble,w
  3757  0393  3901               	andlw	1
  3758  0394  00A1               	movwf	??_LCD_Write_Nibble+1
  3759  0395  0EA1               	swapf	??_LCD_Write_Nibble+1,f
  3760  0396  0DA1               	rlf	??_LCD_Write_Nibble+1,f
  3761  0397  0806               	movf	6,w	;volatile
  3762  0398  0621               	xorwf	??_LCD_Write_Nibble+1,w
  3763  0399  39DF               	andlw	-33
  3764  039A  0621               	xorwf	??_LCD_Write_Nibble+1,w
  3765  039B  0086               	movwf	6	;volatile
  3766                           
  3767                           ;./lcd.h: 66:   PORTBbits.RB6 = (n >> 2) & 0x01;
  3768  039C  0822               	movf	LCD_Write_Nibble@n,w
  3769  039D  00A0               	movwf	??_LCD_Write_Nibble
  3770  039E  3002               	movlw	2
  3771  039F                     u825:
  3772  039F  1003               	clrc
  3773  03A0  0CA0               	rrf	??_LCD_Write_Nibble,f
  3774  03A1  3EFF               	addlw	-1
  3775  03A2  1D03               	skipz
  3776  03A3  2B9F               	goto	u825
  3777  03A4  0820               	movf	??_LCD_Write_Nibble,w
  3778  03A5  3901               	andlw	1
  3779  03A6  00A1               	movwf	??_LCD_Write_Nibble+1
  3780  03A7  0EA1               	swapf	??_LCD_Write_Nibble+1,f
  3781  03A8  0DA1               	rlf	??_LCD_Write_Nibble+1,f
  3782  03A9  0DA1               	rlf	??_LCD_Write_Nibble+1,f
  3783  03AA  0806               	movf	6,w	;volatile
  3784  03AB  0621               	xorwf	??_LCD_Write_Nibble+1,w
  3785  03AC  39BF               	andlw	-65
  3786  03AD  0621               	xorwf	??_LCD_Write_Nibble+1,w
  3787  03AE  0086               	movwf	6	;volatile
  3788                           
  3789                           ;./lcd.h: 67:   PORTBbits.RB7 = (n >> 3) & 0x01;
  3790  03AF  0822               	movf	LCD_Write_Nibble@n,w
  3791  03B0  00A0               	movwf	??_LCD_Write_Nibble
  3792  03B1  3003               	movlw	3
  3793  03B2                     u835:
  3794  03B2  1003               	clrc
  3795  03B3  0CA0               	rrf	??_LCD_Write_Nibble,f
  3796  03B4  3EFF               	addlw	-1
  3797  03B5  1D03               	skipz
  3798  03B6  2BB2               	goto	u835
  3799  03B7  0820               	movf	??_LCD_Write_Nibble,w
  3800  03B8  3901               	andlw	1
  3801  03B9  00A1               	movwf	??_LCD_Write_Nibble+1
  3802  03BA  0CA1               	rrf	??_LCD_Write_Nibble+1,f
  3803  03BB  0CA1               	rrf	??_LCD_Write_Nibble+1,f
  3804  03BC  0806               	movf	6,w	;volatile
  3805  03BD  0621               	xorwf	??_LCD_Write_Nibble+1,w
  3806  03BE  397F               	andlw	-129
  3807  03BF  0621               	xorwf	??_LCD_Write_Nibble+1,w
  3808  03C0  0086               	movwf	6	;volatile
  3809  03C1                     l1318:
  3810                           
  3811                           ;./lcd.h: 70:   PORTCbits.RC7 = 0;
  3812  03C1  1387               	bcf	7,7	;volatile
  3813  03C2                     l1320:
  3814                           
  3815                           ;./lcd.h: 71:   _delay((unsigned long)((1)*(32000000/4000000.0)));
  3816  03C2  2BC3               	nop2	;2 cycle nop
  3817  03C3  2BC4               	nop2	;2 cycle nop
  3818  03C4  2BC5               	nop2	;2 cycle nop
  3819  03C5  2BC6               	nop2	;2 cycle nop
  3820  03C6                     l1322:
  3821                           
  3822                           ;./lcd.h: 72:   PORTCbits.RC7 = 1;
  3823  03C6  1283               	bcf	3,5	;RP0=0, select bank0
  3824  03C7  1303               	bcf	3,6	;RP1=0, select bank0
  3825  03C8  1787               	bsf	7,7	;volatile
  3826  03C9                     l1324:
  3827                           
  3828                           ;./lcd.h: 73:   _delay((unsigned long)((1)*(32000000/4000000.0)));
  3829  03C9  2BCA               	nop2	;2 cycle nop
  3830  03CA  2BCB               	nop2	;2 cycle nop
  3831  03CB  2BCC               	nop2	;2 cycle nop
  3832  03CC  2BCD               	nop2	;2 cycle nop
  3833  03CD                     l1326:
  3834                           
  3835                           ;./lcd.h: 74:   PORTCbits.RC7 = 0;
  3836  03CD  1283               	bcf	3,5	;RP0=0, select bank0
  3837  03CE  1303               	bcf	3,6	;RP1=0, select bank0
  3838  03CF  1387               	bcf	7,7	;volatile
  3839  03D0                     l1328:
  3840                           
  3841                           ;./lcd.h: 75:   _delay((unsigned long)((100)*(32000000/4000000.0)));
  3842  03D0  309F               	movlw	159
  3843  03D1  1283               	bcf	3,5	;RP0=0, select bank0
  3844  03D2  1303               	bcf	3,6	;RP1=0, select bank0
  3845  03D3  00A0               	movwf	??_LCD_Write_Nibble
  3846  03D4                     u1827:
  3847  03D4  2BD5               	nop2
  3848  03D5  0BA0               	decfsz	??_LCD_Write_Nibble,f
  3849  03D6  2BD4               	goto	u1827
  3850  03D7  2BD8               	nop2
  3851  03D8  0000               	nop
  3852  03D9                     l51:
  3853  03D9  0008               	return
  3854  03DA                     __end_of_LCD_Write_Nibble:
  3855  007E                     btemp	set	126	;btemp
  3856  007E                     wtemp0	set	126
  3857                           
  3858                           	psect	config
  3859                           
  3860                           ;Config register CONFIG @ 0x2007
  3861                           ;	Oscillator Selection bits
  3862                           ;	FOSC = XT, XT oscillator
  3863                           ;	Watchdog Timer Enable bit
  3864                           ;	WDTE = OFF, WDT disabled
  3865                           ;	Power-up Timer Enable bit
  3866                           ;	PWRTE = OFF, PWRT disabled
  3867                           ;	Brown-out Reset Enable bit
  3868                           ;	BOREN = OFF, BOR disabled
  3869                           ;	Low-Voltage (Single-Supply) In-Circuit Serial Programming Enable bit
  3870                           ;	LVP = OFF, RB3 is digital I/O, HV on MCLR must be used for programming
  3871                           ;	Data EEPROM Memory Code Protection bit
  3872                           ;	CPD = OFF, Data EEPROM code protection off
  3873                           ;	Flash Program Memory Write Enable bits
  3874                           ;	WRT = OFF, Write protection off; all program memory may be written to by EECON control
  3875                           ;	In-Circuit Debugger Mode bit
  3876                           ;	DEBUG = 0x1, unprogrammed default
  3877                           ;	Flash Program Memory Code Protection bit
  3878                           ;	CP = OFF, Code protection off
  3879  2007                     	org	8199
  3880  2007  3F39               	dw	16185

Data Sizes:
    Strings     8
    Constant    0
    Data        96
    BSS         8
    Persistent  0
    Stack       0

Auto Spaces:
    Space          Size  Autos    Used
    COMMON            0      0       0
    BANK0            94     81      92
    BANK1            94      0      94

Pointer List with Targets:

    strcat@from	PTR const unsigned char  size(2) Largest target is 5
		 -> STR_2(CODE[5]), ventilator_screen@vel_value(BANK0[4]), STR_1(CODE[3]), ventilator_screen@vel_number(BANK0[1]), 
		 -> ventilator_screen@vol_value(BANK0[3]), 

    strcat@to	PTR unsigned char  size(1) Largest target is 16
		 -> ventilator_screen@vel(BANK0[16]), ventilator_screen@vol(BANK0[16]), 

    strcat@cp	PTR unsigned char  size(1) Largest target is 16
		 -> ventilator_screen@vel(BANK0[16]), ventilator_screen@vol(BANK0[16]), 

    utoa@buf	PTR unsigned char  size(1) Largest target is 4
		 -> ventilator_screen@vel_value(BANK0[4]), ventilator_screen@vel_number(BANK0[1]), ventilator_screen@vol_value(BANK0[3]), 

    sp__utoa	PTR unsigned char  size(1) Largest target is 4
		 -> ventilator_screen@vel_value(BANK0[4]), ventilator_screen@vel_number(BANK0[1]), ventilator_screen@vol_value(BANK0[3]), 

    itoa@buf	PTR unsigned char  size(1) Largest target is 4
		 -> ventilator_screen@vel_value(BANK0[4]), ventilator_screen@vel_number(BANK0[1]), ventilator_screen@vol_value(BANK0[3]), 

    itoa@cp	PTR unsigned char  size(1) Largest target is 4
		 -> ventilator_screen@vel_value(BANK0[4]), ventilator_screen@vel_number(BANK0[1]), ventilator_screen@vol_value(BANK0[3]), 

    sp__strcat	PTR unsigned char  size(1) Largest target is 16
		 -> ventilator_screen@vel(BANK0[16]), ventilator_screen@vol(BANK0[16]), 

    sp__itoa	PTR unsigned char  size(1) Largest target is 4
		 -> ventilator_screen@vel_value(BANK0[4]), ventilator_screen@vel_number(BANK0[1]), ventilator_screen@vol_value(BANK0[3]), 

    inicio_presentacion@str	PTR unsigned char  size(1) Largest target is 29
		 -> grupo(BANK1[6]), presentacion(BANK1[29]), saludo(BANK1[23]), 

    LCD_Print@LCD_Str	PTR unsigned char  size(1) Largest target is 29
		 -> ventilator_screen@vel(BANK0[16]), ventilator_screen@vol(BANK0[16]), grupo(BANK1[6]), presentacion(BANK1[29]), 
		 -> saludo(BANK1[23]), 


Critical Paths under _main in COMMON

    None.

Critical Paths under _main in BANK0

    _main->_ventilator_screen
    _ventilator_screen->_itoa
    _itoa->_utoa
    _utoa->___lwdiv
    _keypad_getkey->_keypad_readkey
    _inicio_presentacion->_LCD_Goto
    _LCD_Print->_LCD_Write_Nibble
    _LCD_Goto->_LCD_Cmd
    _LCD_PutC->_LCD_Write_Nibble
    _LCD_Begin->_LCD_Cmd
    _LCD_Cmd->_LCD_Write_Nibble

Critical Paths under _main in BANK1

    None.

Call Graph Tables:

 ---------------------------------------------------------------------------------
 (Depth) Function   	        Calls       Base Space   Used Autos Params    Refs
 ---------------------------------------------------------------------------------
 (0) _main                                                 6     6      0    7559
                                             75 BANK0      6     6      0
                          _LCD_Begin
                           _LCD_Goto
                           _LCD_PutC
                    _iniciar_puertos
                _inicio_presentacion
                      _keypad_getkey
                  _ventilator_screen
 ---------------------------------------------------------------------------------
 (1) _ventilator_screen                                   52    44      8    4760
                                             23 BANK0     52    44      8
                           _LCD_Goto
                          _LCD_Print
                            ___fltol
                               _itoa
                             _strcat
 ---------------------------------------------------------------------------------
 (3) _strcat                                               5     3      2     643
                                              0 BANK0      5     3      2
 ---------------------------------------------------------------------------------
 (2) _itoa                                                 7     3      4    1982
                                             17 BANK0      6     2      4
                            ___fltol (ARG)
                               _utoa
 ---------------------------------------------------------------------------------
 (3) _utoa                                                 9     5      4    1264
                                              8 BANK0      9     5      4
                            ___lwdiv
                            ___lwmod
 ---------------------------------------------------------------------------------
 (4) ___lwmod                                              6     2      4     311
                                              0 BANK0      6     2      4
 ---------------------------------------------------------------------------------
 (4) ___lwdiv                                              8     4      4     466
                                              0 BANK0      8     4      4
 ---------------------------------------------------------------------------------
 (2) ___fltol                                             11     7      4     305
                                              0 BANK0     11     7      4
 ---------------------------------------------------------------------------------
 (1) _keypad_getkey                                        2     2      0      46
                                              1 BANK0      2     2      0
                     _keypad_readkey
 ---------------------------------------------------------------------------------
 (2) _keypad_readkey                                       1     1      0       0
                                              0 BANK0      1     1      0
 ---------------------------------------------------------------------------------
 (1) _inicio_presentacion                                  8     5      3    1687
                                             10 BANK0      8     5      3
                            _LCD_Cmd
                           _LCD_Goto
                          _LCD_Print
 ---------------------------------------------------------------------------------
 (2) _LCD_Print                                            4     4      0     321
                                              3 BANK0      4     4      0
                   _LCD_Write_Nibble
 ---------------------------------------------------------------------------------
 (2) _LCD_Goto                                             4     3      1     666
                                              6 BANK0      4     3      1
                            _LCD_Cmd
 ---------------------------------------------------------------------------------
 (1) _iniciar_puertos                                      0     0      0       0
 ---------------------------------------------------------------------------------
 (1) _LCD_PutC                                             2     2      0     132
                                              3 BANK0      2     2      0
                   _LCD_Write_Nibble
 ---------------------------------------------------------------------------------
 (1) _LCD_Begin                                            3     3      0     176
                                              6 BANK0      3     3      0
                            _LCD_Cmd
 ---------------------------------------------------------------------------------
 (3) _LCD_Cmd                                              3     3      0     176
                                              3 BANK0      3     3      0
                   _LCD_Write_Nibble
 ---------------------------------------------------------------------------------
 (3) _LCD_Write_Nibble                                     3     3      0      88
                                              0 BANK0      3     3      0
 ---------------------------------------------------------------------------------
 Estimated maximum stack depth 4
 ---------------------------------------------------------------------------------

 Call Graph Graphs:

 _main (ROOT)
   _LCD_Begin
     _LCD_Cmd
       _LCD_Write_Nibble
   _LCD_Goto
     _LCD_Cmd
   _LCD_PutC
     _LCD_Write_Nibble
   _iniciar_puertos
   _inicio_presentacion
     _LCD_Cmd
     _LCD_Goto
     _LCD_Print
       _LCD_Write_Nibble
   _keypad_getkey
     _keypad_readkey
   _ventilator_screen
     _LCD_Goto
     _LCD_Print
     ___fltol
     _itoa
       ___fltol (ARG)
       _utoa (ARG)
         ___lwdiv
         ___lwmod
     _strcat

 Address spaces:
Name               Size   Autos  Total    Cost      Usage
SFR3                 0      0       0       4        0.0%
BITSFR3              0      0       0       4        0.0%
SFR2                 0      0       0       5        0.0%
BITSFR2              0      0       0       5        0.0%
BANK1               5E      0      5E       6      100.0%
BITBANK1            5E      0       0       5        0.0%
SFR1                 0      0       0       2        0.0%
BITSFR1              0      0       0       2        0.0%
BANK0               5E     51      5C       4       97.9%
BITBANK0            5E      0       1       3        1.1%
SFR0                 0      0       0       1        0.0%
BITSFR0              0      0       0       1        0.0%
COMMON               0      0       0       1        0.0%
BITCOMMON            0      0       0       0        0.0%
CODE                 0      0       0       0        0.0%
DATA                 0      0      BA       8        0.0%
ABS                  0      0      BA       7        0.0%
NULL                 0      0       0       0        0.0%
STACK                0      0       0       2        0.0%
EEDATA              80      0       0       0        0.0%


Microchip Technology PIC Macro Assembler V2.32 build 20210201212658 
Symbol Table                                                                                   Tue Jun 22 14:43:02 2021

                                 pc 0002                                  l51 03D9  
                                l57 01A8                                  l66 01D8  
                                l75 023F                                  l69 0135  
                                l78 062C                                  l96 0738  
                                l97 0726                                  l98 07D8  
                                l99 072C                                  _RS 03D8  
                                fsr 0004                                 l100 0732  
                               l110 079C                                 l102 076D  
                               l103 075B                                 l104 0761  
                               l113 07C5                                 l105 0767  
                               l114 07CB                                 l115 07D1  
                               l107 07A2                                 l108 0790  
                               l109 0796                                 l125 0156  
                               l171 056F                                 l164 0378  
                               l158 011E                                 l450 04AC  
                               l443 04C1                                 l453 04C1  
                               l711 017A                                 l529 02C1  
                               l539 027B                                 l717 042E  
                               l719 0445                                 l728 020A  
                               _ECO 0079                                 _RA0 0028  
                               _RA1 0029                                 _RA2 002A  
                               _RA3 002B                                 _RC0 0038  
                               _RA4 002C                                 _RC1 0039  
                               _RA5 002D                                 u800 0383  
                               u801 037F                                 u900 02BD  
                               u901 02BC                                 u814 0386  
                               u910 0248                                 u911 0247  
                               u840 0286                                 u825 039F  
                               u841 0285                                 u930 025A  
                               u835 03B2                                 u931 0259  
                               u860 0298                                 u940 0264  
                               u861 0297                                 u941 0263  
                               u925 024C                                 u855 028A  
                               u880 02A9                                 u960 0277  
                               u881 02A8                                 u961 0276  
                               u945 0260                                 u875 0299  
                               u955 026B                                 u980 0198  
                               u981 0197                                 u885 02A5  
                               u990 019E                                 u991 019D  
                               u975 0182                                 u895 02B1  
                  ?_iniciar_puertos 0020                                 fsr0 0004  
                               indf 0000                     __end_of_LCD_Cmd 01A9  
                      ___fltol@exp1 002A                                l1320 03C2  
                              l1400 0402                                l1322 03C6  
                              l1314 037C                                l1330 027C  
                              l1410 0439                                l1402 0413  
                              l1324 03C9                                l1316 0386  
                              l1420 01AD                                l1500 076B  
                              l1340 0294                                l1332 0280  
                              l1412 043B                                l1404 0424  
                              l1326 03CD                                l1318 03C1  
                              l1422 01B3                                l1510 0782  
                              l1350 02B7                                l1342 0298  
                              l1334 0286                                l1414 0441  
                              l1406 042A                                l1328 03D0  
                              l1424 01B9                                l1440 0211  
                              l1520 0794                                l1512 0786  
                              l1504 0771                                l1600 0472  
                              l1344 02A9                                l1336 0289  
                              l1352 02BD                                l1360 024B  
                              l1408 0432                                l1426 01BF  
                              l1418 01AC                                l1442 022E  
                              l1514 078A                                l1506 0778  
                              l1450 070E                                l1602 047A  
                              l1346 02AF                                l1338 0290  
                              l1370 026A                                l1362 0252  
                              l1380 017F                                l1428 01C5  
                              l1444 0234                                l1436 020E  
                              l1700 0338                                l1540 07BB  
                              l1532 07A6                                l1524 079A  
                              l1516 078E                                l1508 077E  
                              l1460 0724                                l1452 0714  
                              l1620 04A1                                l1612 0488  
                              l1604 047C                                l1348 02B0  
                              l1372 0271                                l1364 0256  
                              l1356 0240                                l1382 0191  
                              l1630 0570                                l1438 020F  
                              l1710 0362                                l1702 033D  
                              l1542 07BF                                l1534 07AD  
                              l1454 0718                                l1446 0701  
                              l1622 04B1                                l1606 0480  
                              l1614 049A                                l1366 025A  
                              l1358 0248                                l1374 0277  
                              l1390 03E1                                l1384 0198  
                              l1640 05AF                                l1632 0583  
                              l1712 036C                                l1704 0341  
                              l1552 07CF                                l1544 07C3  
                              l1536 07B3                                l1560 07D7  
                              l1528 07A0                                l1480 0749  
                              l1472 0736                                l1464 072A  
                              l1456 071C                                l1448 0707  
                              l1624 04B6                                l1368 0264  
                              l1392 03F2                                l1720 04F4  
                              l1386 019E                                l1378 017E  
                              l1650 05F3                                l1642 05BE  
                              l1634 0591                                l1626 0122  
                              l1810 01CD                                l1714 0370  
                              l1706 034C                                l1538 07B7  
                              l1482 074D                                l1458 0720  
                              l1394 03F6                                l1570 0165  
                              l1730 0535                                l1722 050F  
                              l1652 05F7                                l1644 05C2  
                              l1636 0595                                l1628 0123  
                              l1708 0354                                l1556 07D5  
                              l1548 07C9                                l1492 075F  
                              l1484 0751                                l1476 073C  
                              l1468 0730                                l1660 013D  
                              l1396 03FC                                l1388 03DD  
                              l1572 0169                                l1564 015A  
                              l1580 01E1                                l1740 056B  
                              l1732 053F                                l1724 0519  
                              l1716 04C2                                l1654 060A  
                              l1646 05D1                                l1638 05A4  
                              l1670 010A                                l1486 0755  
                              l1478 0743                                l1662 0145  
                              l1590 0446                                l1398 0400  
                              l1574 016E                                l1566 015A  
                              l1582 01E5                                l1734 0549  
                              l1726 051D                                l1718 04EE  
                              l1750 0646                                l1742 062D  
                              l1656 0619                                l1648 05E0  
                              l1680 0115                                l1672 010F  
                              l1496 0765                                l1488 0759  
                              l1664 014B                                l1592 0453  
                              l1568 015E                                l1584 01EE  
                              l1736 0557                                l1728 0527  
                              l1760 0698                                l1752 065E  
                              l1744 0633                                l1690 011A  
                              l1682 0116                                l1674 0112  
                              l1666 0153                                l1658 0136  
                              l1586 01F2                                l1578 01DC  
                              l1738 0561                                l1770 06C5  
                              l1762 06A0                                l1754 0669  
                              l1746 0636                                l1692 011B  
                              l1684 0117                                l1676 0113  
                              l1596 045C                                l1588 01F8  
                              l1772 06CE                                l1764 06A4  
                              l1756 0681                                l1748 0639  
                              l1694 011C                                l1686 0118  
                              l1678 0114                                l1598 0471  
                              l1774 06D5                                l1766 06AC  
                              l1758 0689                                l1688 0119  
                              l1696 031C                                l1776 06E8  
                              l1768 06B2                                l1698 032A  
                              l1778 06F0                   ?_LCD_Write_Nibble 0020  
                              STR_1 0017                                STR_2 0012  
                              u1000 03FC                                u1001 03FB  
                              u1010 042A                                u1011 0429  
                              u1100 072A                                u1020 0441  
                              u1101 0729                                u1021 0440  
                              u1110 0730                                u1111 072F  
                              u1040 023F                                u1200 076B  
                              u1120 0736                                u1041 023E  
                              u1201 076A                                u1121 0735  
                              u1210 077E                                u1130 0749  
                              u1050 0714                                u1035 0219  
                              u1211 077D                                u1131 0748  
                              u1051 0713                                u1300 07B7  
                              u1220 0782                                u1140 074D  
                              u1060 0718                                u1301 07B6  
                              u1221 0781                                u1141 074C  
                              u1061 0717                                u1310 07BB  
                              u1230 0786                                u1150 0751  
                              u1070 071C                                u1311 07BA  
                              u1231 0785                                u1151 0750  
                              u1071 071B                                u1320 07BF  
                              u1240 078A                                u1160 0755  
                              u1080 0720                                u1400 0453  
                              u1321 07BE                                u1241 0789  
                              u1161 0754                                u1081 071F  
                              u1401 0452                                u1330 07C3  
                              u1250 078E                                u1170 0759  
                              u1090 0724                                u1410 046A  
                              u1331 07C2                                u1251 078D  
                              u1171 0758                                u1091 0723  
                              u1340 07C9                                u1260 0794  
                              u1180 075F                                u1420 0480  
                              u1341 07C8                                u1261 0793  
                              u1181 075E                                u1421 047F  
                              u1350 07CF                                u1270 079A  
                              u1190 0765                                u1510 014B  
                              u1430 0487                                u1351 07CE  
                              u1271 0799                                u1191 0764  
                              u1511 014A                                u1431 0486  
                              u1415 0465                                u1360 07D5  
                              u1280 07A0                                u1520 0153  
                              u1505 0126                                u1361 07D4  
                              u1281 079F                                u1521 0152  
                              u1530 0362                                u1290 07B3  
                              u1450 0499                                u1370 015E  
                              u1531 0361                                u1291 07B2  
                              u1451 0498                                u1371 015D  
                              u1460 04A0                                u1380 01ED  
                              u1540 04CC                                u1461 049F  
                              u1445 0489                                u1381 01EC  
                              u1390 020A                                u1550 04E1  
                              u1535 035E                                u1391 0209  
                              u1607 0664                                u1480 04B1  
                              u1560 06AC                                u1481 04B0  
                              u1561 06AB                                u1617 067C  
                              u1490 04B6                                u1570 06B2  
                              u1707 0368                                u1491 04B5  
                              u1475 04A3                                u1571 06B1  
                              u1627 0691                                u1580 06D5  
                              u1717 058B                                u1637 06F8  
                              u1581 06D4                                u1807 0625  
                              u1727 059B                                u1647 070B  
                              u1817 01A4                                u1737 05AA  
                              u1657 0740                                u1827 03D4  
                              u1747 05B9                                u1667 0775  
                              u1757 05C8                                u1677 07AA  
                              u1597 064C                                u1767 05D9  
                              u1687 0332                                u1777 05EC  
                              u1697 0347                                u1787 05FF  
                              u1797 0612                  ??_LCD_Write_Nibble 0020  
                              _main 062D                  __size_of_LCD_Begin 00BD  
                              _itoa 0157                                btemp 007E  
                              _utoa 03DA                  __size_of_LCD_Print 0035  
                              start 0000                         LCD_Goto@col 0029  
                       LCD_Goto@row 0026                    __end_of_LCD_Goto 01D9  
                  __end_of_LCD_PutC 0136                       ___fltol@sign1 0029  
                             ?_main 0020                               ?_itoa 0031  
                             _ADRES 0077                     __end_of___fltol 04C2  
                             ?_utoa 0028                     __end_of___lwdiv 02C2  
                   __end_of___lwmod 027C                               _PORTA 0005  
                             _PORTB 0006                               _PORTC 0007  
                  ??_keypad_readkey 0020                               _grupo 00F4  
                             main@c 006E                               main@i 006F  
                             pclath 000A                               utoa@c 002F  
                             utoa@v 002D                               status 0003  
                             wtemp0 007E                     __initialization 07D9  
                      __end_of_main 0701                        __end_of_itoa 017B  
                      __end_of_utoa 0446  ventilator_screen@ventilator_number 003D  
                            ??_main 006B                              ??_itoa 0035  
                 __end_of_LCD_Begin 062D                              ??_utoa 002C  
                         ??_LCD_Cmd 0023                   __end_of_LCD_Print 0240  
                            _ADCON1 009F                   _ventilator_screen 04C2  
                         ??___fltol 0024                           ??___lwdiv 0024  
                         ??___lwmod 0024                  ?_ventilator_screen 0037  
                            _saludo 00DD                              _number 00FA  
                            _strcat 01D9                 ??_ventilator_screen 003F  
           __end_of__initialization 07FD                           ?_LCD_Goto 0026  
                         ?_LCD_PutC 0020                       _length_saludo 0071  
                        ___fltol@f1 0020              __size_of_keypad_getkey 0021  
         __end_of_ventilator_screen 0570        __size_of_inicio_presentacion 005D  
                    __pcstackCOMMON 0000                        __pidataBANK0 00F3  
                      __pidataBANK1 02C2                      LCD_Cmd@Command 0025  
            inicio_presentacion@str 002C                          __pbssBANK0 0077  
                        __pbssBANK1 00FA                          ??_LCD_Goto 0027  
                        ??_LCD_PutC 0023              ventilator_screen@F1131 00A0  
            ventilator_screen@F1129 00B0                          __pmaintext 062D  
         __size_of_LCD_Write_Nibble 0061                             ?_strcat 0020  
                     _keypad_getkey 0136                             _LCD_Cmd 017B  
                        __stringtab 0002            __size_of_iniciar_puertos 0015  
        __size_of_ventilator_screen 00AE                    LCD_PutC@LCD_Char 0024  
                           ___fltol 0446                             ___lwdiv 027C  
                           ___lwmod 0240          ventilator_screen@vel_value 0063  
          ventilator_screen@voltaje 0037                             __ptext1 04C2  
                           __ptext2 01D9                             __ptext3 0157  
                           __ptext4 03DA                             __ptext5 0240  
                           __ptext6 027C                             __ptext7 0446  
                           __ptext8 0136                             __ptext9 0701  
                    ?_keypad_getkey 0020                     __size_of_strcat 0032  
                         _LCD_Begin 0570          ventilator_screen@vol_value 0067  
                         _LCD_Print 020B                end_of_initialization 07FD  
                           itoa@buf 0036                             itoa@val 0031  
                           utoa@buf 0030                   LCD_Write_Nibble@n 0022  
                           utoa@val 0028                           _PORTBbits 0006  
                         _PORTCbits 0007                           _TRISAbits 0085  
                         _TRISBbits 0086                           _TRISCbits 0087  
                        ?_LCD_Begin 0020                 _inicio_presentacion 031C  
                        ?_LCD_Print 0020             __size_of_keypad_readkey 00D8  
                 __size_of_LCD_Goto 0030                   __size_of_LCD_PutC 0017  
                 ??_iniciar_puertos 0000                ?_inicio_presentacion 002A  
                  _LCD_Write_Nibble 0379                          LCD_Print@i 0025  
                   ??_keypad_getkey 0021                       __pbitbssBANK0 03D8  
                    __end_of_strcat 020B                 start_initialization 07D9  
              inicio_presentacion@i 0030               ??_inicio_presentacion 002D  
                        init_fetch0 00F9                         __pdataBANK0 0071  
                       __pdataBANK1 00A0                 _length_presentacion 0073  
                          ??_strcat 0022                            ?_LCD_Cmd 0020  
                      _length_grupo 0075                           ___latbits 0001  
                     __pcstackBANK0 0020                         ??_LCD_Begin 0026  
                       ??_LCD_Print 0023                    ___lwdiv@dividend 0022  
                          ?___fltol 0020                            ?___lwdiv 0020  
                          ?___lwmod 0020                    LCD_Print@LCD_Str 0026  
                         __pstrings 0002                    ___lwdiv@quotient 0025  
                          _LCD_Goto 01A9                            _LCD_PutC 011F  
                    _keypad_readkey 0701                         __stringbase 0011  
                  __size_of_LCD_Cmd 002E            __end_of_LCD_Write_Nibble 03DA  
                   _iniciar_puertos 010A              __end_of_keypad_readkey 07D9  
                  __size_of___fltol 007C                    __size_of___lwdiv 0046  
                  __size_of___lwmod 003C                  __end_of__stringtab 0012  
                        strcat@from 0020                     ___lwdiv@divisor 0020  
                   ___lwdiv@counter 0027         ventilator_screen@vel_number 006A  
                          __ptext10 031C                            __ptext11 020B  
                          __ptext12 01A9                            __ptext13 010A  
                          __ptext14 011F                            __ptext15 0570  
                          __ptext16 017B                            __ptext17 0379  
              ventilator_screen@vel 0053                ventilator_screen@vol 0043  
              ventilator_screen@vrm 003B                     ?_keypad_readkey 0020  
                     __size_of_main 00D4                       __size_of_itoa 0024  
                     __size_of_utoa 006C               __end_of_keypad_getkey 0157  
           __end_of_iniciar_puertos 011F                    keypad_getkey@key 0022  
                          itoa@base 0033                            init_ram0 00FD  
         inicio_presentacion@length 002A         __end_of_inicio_presentacion 0379  
                  ___lwmod@dividend 0022                           stringcode 000C  
                      _presentacion 00C0                            utoa@base 002A  
                          strcat@cp 0023                            strcat@to 0024  
                   ___lwmod@divisor 0020                     ___lwmod@counter 0025  
                          stringdir 000C                            stringtab 0002  
